
ownership:     file format elf64-x86-64


Disassembly of section .init:

0000000000005000 <_init>:
    5000:	f3 0f 1e fa          	endbr64 
    5004:	48 83 ec 08          	sub    rsp,0x8
    5008:	48 8b 05 21 4d 04 00 	mov    rax,QWORD PTR [rip+0x44d21]        # 49d30 <__gmon_start__>
    500f:	48 85 c0             	test   rax,rax
    5012:	74 02                	je     5016 <_init+0x16>
    5014:	ff d0                	call   rax
    5016:	48 83 c4 08          	add    rsp,0x8
    501a:	c3                   	ret    

Disassembly of section .plt:

0000000000005020 <.plt>:
    5020:	ff 35 a2 49 04 00    	push   QWORD PTR [rip+0x449a2]        # 499c8 <_GLOBAL_OFFSET_TABLE_+0x8>
    5026:	ff 25 a4 49 04 00    	jmp    QWORD PTR [rip+0x449a4]        # 499d0 <_GLOBAL_OFFSET_TABLE_+0x10>
    502c:	0f 1f 40 00          	nop    DWORD PTR [rax+0x0]

0000000000005030 <__tls_get_addr@plt>:
    5030:	ff 25 a2 49 04 00    	jmp    QWORD PTR [rip+0x449a2]        # 499d8 <__tls_get_addr@GLIBC_2.3>
    5036:	68 00 00 00 00       	push   0x0
    503b:	e9 e0 ff ff ff       	jmp    5020 <.plt>

0000000000005040 <__fxstat64@plt>:
    5040:	ff 25 9a 49 04 00    	jmp    QWORD PTR [rip+0x4499a]        # 499e0 <__fxstat64@GLIBC_2.2.5>
    5046:	68 01 00 00 00       	push   0x1
    504b:	e9 d0 ff ff ff       	jmp    5020 <.plt>

0000000000005050 <_Unwind_Resume@plt>:
    5050:	ff 25 92 49 04 00    	jmp    QWORD PTR [rip+0x44992]        # 499e8 <_Unwind_Resume@GCC_3.0>
    5056:	68 02 00 00 00       	push   0x2
    505b:	e9 c0 ff ff ff       	jmp    5020 <.plt>

Disassembly of section .plt.got:

0000000000005060 <memset@plt>:
    5060:	ff 25 fa 4b 04 00    	jmp    QWORD PTR [rip+0x44bfa]        # 49c60 <memset@GLIBC_2.2.5>
    5066:	66 90                	xchg   ax,ax

0000000000005068 <memcpy@plt>:
    5068:	ff 25 e2 4c 04 00    	jmp    QWORD PTR [rip+0x44ce2]        # 49d50 <memcpy@GLIBC_2.14>
    506e:	66 90                	xchg   ax,ax

0000000000005070 <__cxa_finalize@plt>:
    5070:	ff 25 32 4f 04 00    	jmp    QWORD PTR [rip+0x44f32]        # 49fa8 <__cxa_finalize@GLIBC_2.2.5>
    5076:	66 90                	xchg   ax,ax

Disassembly of section .text:

0000000000005080 <_start>:
    5080:	f3 0f 1e fa          	endbr64 
    5084:	31 ed                	xor    ebp,ebp
    5086:	49 89 d1             	mov    r9,rdx
    5089:	5e                   	pop    rsi
    508a:	48 89 e2             	mov    rdx,rsp
    508d:	48 83 e4 f0          	and    rsp,0xfffffffffffffff0
    5091:	50                   	push   rax
    5092:	54                   	push   rsp
    5093:	4c 8d 05 c6 34 03 00 	lea    r8,[rip+0x334c6]        # 38560 <__libc_csu_fini>
    509a:	48 8d 0d 4f 34 03 00 	lea    rcx,[rip+0x3344f]        # 384f0 <__libc_csu_init>
    50a1:	48 8d 3d b8 31 00 00 	lea    rdi,[rip+0x31b8]        # 8260 <main>
    50a8:	ff 15 2a 4c 04 00    	call   QWORD PTR [rip+0x44c2a]        # 49cd8 <__libc_start_main@GLIBC_2.2.5>
    50ae:	f4                   	hlt    
    50af:	90                   	nop

00000000000050b0 <deregister_tm_clones>:
    50b0:	48 8d 3d 81 4f 04 00 	lea    rdi,[rip+0x44f81]        # 4a038 <__TMC_END__>
    50b7:	48 8d 05 7a 4f 04 00 	lea    rax,[rip+0x44f7a]        # 4a038 <__TMC_END__>
    50be:	48 39 f8             	cmp    rax,rdi
    50c1:	74 15                	je     50d8 <deregister_tm_clones+0x28>
    50c3:	48 8b 05 ce 49 04 00 	mov    rax,QWORD PTR [rip+0x449ce]        # 49a98 <_ITM_deregisterTMCloneTable>
    50ca:	48 85 c0             	test   rax,rax
    50cd:	74 09                	je     50d8 <deregister_tm_clones+0x28>
    50cf:	ff e0                	jmp    rax
    50d1:	0f 1f 80 00 00 00 00 	nop    DWORD PTR [rax+0x0]
    50d8:	c3                   	ret    
    50d9:	0f 1f 80 00 00 00 00 	nop    DWORD PTR [rax+0x0]

00000000000050e0 <register_tm_clones>:
    50e0:	48 8d 3d 51 4f 04 00 	lea    rdi,[rip+0x44f51]        # 4a038 <__TMC_END__>
    50e7:	48 8d 35 4a 4f 04 00 	lea    rsi,[rip+0x44f4a]        # 4a038 <__TMC_END__>
    50ee:	48 29 fe             	sub    rsi,rdi
    50f1:	48 89 f0             	mov    rax,rsi
    50f4:	48 c1 ee 3f          	shr    rsi,0x3f
    50f8:	48 c1 f8 03          	sar    rax,0x3
    50fc:	48 01 c6             	add    rsi,rax
    50ff:	48 d1 fe             	sar    rsi,1
    5102:	74 14                	je     5118 <register_tm_clones+0x38>
    5104:	48 8b 05 6d 4e 04 00 	mov    rax,QWORD PTR [rip+0x44e6d]        # 49f78 <_ITM_registerTMCloneTable>
    510b:	48 85 c0             	test   rax,rax
    510e:	74 08                	je     5118 <register_tm_clones+0x38>
    5110:	ff e0                	jmp    rax
    5112:	66 0f 1f 44 00 00    	nop    WORD PTR [rax+rax*1+0x0]
    5118:	c3                   	ret    
    5119:	0f 1f 80 00 00 00 00 	nop    DWORD PTR [rax+0x0]

0000000000005120 <__do_global_dtors_aux>:
    5120:	f3 0f 1e fa          	endbr64 
    5124:	80 3d 0d 4f 04 00 00 	cmp    BYTE PTR [rip+0x44f0d],0x0        # 4a038 <__TMC_END__>
    512b:	75 2b                	jne    5158 <__do_global_dtors_aux+0x38>
    512d:	55                   	push   rbp
    512e:	48 83 3d 72 4e 04 00 	cmp    QWORD PTR [rip+0x44e72],0x0        # 49fa8 <__cxa_finalize@GLIBC_2.2.5>
    5135:	00 
    5136:	48 89 e5             	mov    rbp,rsp
    5139:	74 0c                	je     5147 <__do_global_dtors_aux+0x27>
    513b:	48 8b 3d be 4e 04 00 	mov    rdi,QWORD PTR [rip+0x44ebe]        # 4a000 <__dso_handle>
    5142:	e8 29 ff ff ff       	call   5070 <__cxa_finalize@plt>
    5147:	e8 64 ff ff ff       	call   50b0 <deregister_tm_clones>
    514c:	c6 05 e5 4e 04 00 01 	mov    BYTE PTR [rip+0x44ee5],0x1        # 4a038 <__TMC_END__>
    5153:	5d                   	pop    rbp
    5154:	c3                   	ret    
    5155:	0f 1f 00             	nop    DWORD PTR [rax]
    5158:	c3                   	ret    
    5159:	0f 1f 80 00 00 00 00 	nop    DWORD PTR [rax+0x0]

0000000000005160 <frame_dummy>:
    5160:	f3 0f 1e fa          	endbr64 
    5164:	e9 77 ff ff ff       	jmp    50e0 <register_tm_clones>
    5169:	0f 1f 80 00 00 00 00 	nop    DWORD PTR [rax+0x0]

0000000000005170 <_ZN4core6option15Option$LT$T$GT$5ok_or17h10dd0558bee9982dE>:
    5170:	48 83 ec 48          	sub    rsp,0x48
    5174:	48 89 3c 24          	mov    QWORD PTR [rsp],rdi
    5178:	48 89 74 24 08       	mov    QWORD PTR [rsp+0x8],rsi
    517d:	c6 44 24 27 00       	mov    BYTE PTR [rsp+0x27],0x0
    5182:	c6 44 24 27 01       	mov    BYTE PTR [rsp+0x27],0x1
    5187:	48 8b 04 24          	mov    rax,QWORD PTR [rsp]
    518b:	48 85 c0             	test   rax,rax
    518e:	74 04                	je     5194 <_ZN4core6option15Option$LT$T$GT$5ok_or17h10dd0558bee9982dE+0x24>
    5190:	eb 00                	jmp    5192 <_ZN4core6option15Option$LT$T$GT$5ok_or17h10dd0558bee9982dE+0x22>
    5192:	eb 12                	jmp    51a6 <_ZN4core6option15Option$LT$T$GT$5ok_or17h10dd0558bee9982dE+0x36>
    5194:	c6 44 24 27 00       	mov    BYTE PTR [rsp+0x27],0x0
    5199:	48 c7 44 24 10 01 00 	mov    QWORD PTR [rsp+0x10],0x1
    51a0:	00 00 
    51a2:	eb 1a                	jmp    51be <_ZN4core6option15Option$LT$T$GT$5ok_or17h10dd0558bee9982dE+0x4e>
    51a4:	0f 0b                	ud2    
    51a6:	48 8b 44 24 08       	mov    rax,QWORD PTR [rsp+0x8]
    51ab:	48 89 44 24 30       	mov    QWORD PTR [rsp+0x30],rax
    51b0:	48 89 44 24 18       	mov    QWORD PTR [rsp+0x18],rax
    51b5:	48 c7 44 24 10 00 00 	mov    QWORD PTR [rsp+0x10],0x0
    51bc:	00 00 
    51be:	f6 44 24 27 01       	test   BYTE PTR [rsp+0x27],0x1
    51c3:	75 0f                	jne    51d4 <_ZN4core6option15Option$LT$T$GT$5ok_or17h10dd0558bee9982dE+0x64>
    51c5:	48 8b 44 24 10       	mov    rax,QWORD PTR [rsp+0x10]
    51ca:	48 8b 54 24 18       	mov    rdx,QWORD PTR [rsp+0x18]
    51cf:	48 83 c4 48          	add    rsp,0x48
    51d3:	c3                   	ret    
    51d4:	c6 44 24 27 00       	mov    BYTE PTR [rsp+0x27],0x0
    51d9:	eb ea                	jmp    51c5 <_ZN4core6option15Option$LT$T$GT$5ok_or17h10dd0558bee9982dE+0x55>
    51db:	0f 1f 44 00 00       	nop    DWORD PTR [rax+rax*1+0x0]

00000000000051e0 <_ZN4core6option15Option$LT$T$GT$5ok_or17h19d984d3b3a2aaafE>:
    51e0:	48 83 ec 60          	sub    rsp,0x60
    51e4:	48 89 f8             	mov    rax,rdi
    51e7:	48 89 74 24 20       	mov    QWORD PTR [rsp+0x20],rsi
    51ec:	48 89 54 24 28       	mov    QWORD PTR [rsp+0x28],rdx
    51f1:	48 89 4c 24 38       	mov    QWORD PTR [rsp+0x38],rcx
    51f6:	4c 89 44 24 40       	mov    QWORD PTR [rsp+0x40],r8
    51fb:	c6 44 24 37 00       	mov    BYTE PTR [rsp+0x37],0x0
    5200:	c6 44 24 37 01       	mov    BYTE PTR [rsp+0x37],0x1
    5205:	48 8b 54 24 20       	mov    rdx,QWORD PTR [rsp+0x20]
    520a:	48 85 d2             	test   rdx,rdx
    520d:	4c 89 44 24 18       	mov    QWORD PTR [rsp+0x18],r8
    5212:	48 89 4c 24 10       	mov    QWORD PTR [rsp+0x10],rcx
    5217:	48 89 7c 24 08       	mov    QWORD PTR [rsp+0x8],rdi
    521c:	48 89 04 24          	mov    QWORD PTR [rsp],rax
    5220:	74 04                	je     5226 <_ZN4core6option15Option$LT$T$GT$5ok_or17h19d984d3b3a2aaafE+0x46>
    5222:	eb 00                	jmp    5224 <_ZN4core6option15Option$LT$T$GT$5ok_or17h19d984d3b3a2aaafE+0x44>
    5224:	eb 27                	jmp    524d <_ZN4core6option15Option$LT$T$GT$5ok_or17h19d984d3b3a2aaafE+0x6d>
    5226:	c6 44 24 37 00       	mov    BYTE PTR [rsp+0x37],0x0
    522b:	48 8b 44 24 08       	mov    rax,QWORD PTR [rsp+0x8]
    5230:	48 8b 4c 24 10       	mov    rcx,QWORD PTR [rsp+0x10]
    5235:	48 89 48 08          	mov    QWORD PTR [rax+0x8],rcx
    5239:	48 8b 54 24 18       	mov    rdx,QWORD PTR [rsp+0x18]
    523e:	48 89 50 10          	mov    QWORD PTR [rax+0x10],rdx
    5242:	48 c7 00 01 00 00 00 	mov    QWORD PTR [rax],0x1
    5249:	eb 1c                	jmp    5267 <_ZN4core6option15Option$LT$T$GT$5ok_or17h19d984d3b3a2aaafE+0x87>
    524b:	0f 0b                	ud2    
    524d:	48 8b 44 24 28       	mov    rax,QWORD PTR [rsp+0x28]
    5252:	48 89 44 24 48       	mov    QWORD PTR [rsp+0x48],rax
    5257:	48 8b 4c 24 08       	mov    rcx,QWORD PTR [rsp+0x8]
    525c:	48 89 41 08          	mov    QWORD PTR [rcx+0x8],rax
    5260:	48 c7 01 00 00 00 00 	mov    QWORD PTR [rcx],0x0
    5267:	f6 44 24 37 01       	test   BYTE PTR [rsp+0x37],0x1
    526c:	75 09                	jne    5277 <_ZN4core6option15Option$LT$T$GT$5ok_or17h19d984d3b3a2aaafE+0x97>
    526e:	48 8b 04 24          	mov    rax,QWORD PTR [rsp]
    5272:	48 83 c4 60          	add    rsp,0x60
    5276:	c3                   	ret    
    5277:	c6 44 24 37 00       	mov    BYTE PTR [rsp+0x37],0x0
    527c:	eb f0                	jmp    526e <_ZN4core6option15Option$LT$T$GT$5ok_or17h19d984d3b3a2aaafE+0x8e>
    527e:	66 90                	xchg   ax,ax

0000000000005280 <_ZN4core6option15Option$LT$T$GT$5ok_or17h61dc4c3275c140d2E>:
    5280:	48 83 ec 38          	sub    rsp,0x38
    5284:	48 89 3c 24          	mov    QWORD PTR [rsp],rdi
    5288:	c6 44 24 17 00       	mov    BYTE PTR [rsp+0x17],0x0
    528d:	c6 44 24 17 01       	mov    BYTE PTR [rsp+0x17],0x1
    5292:	48 8b 04 24          	mov    rax,QWORD PTR [rsp]
    5296:	48 85 c0             	test   rax,rax
    5299:	0f 95 c1             	setne  cl
    529c:	0f b6 d1             	movzx  edx,cl
    529f:	89 d0                	mov    eax,edx
    52a1:	74 04                	je     52a7 <_ZN4core6option15Option$LT$T$GT$5ok_or17h61dc4c3275c140d2E+0x27>
    52a3:	eb 00                	jmp    52a5 <_ZN4core6option15Option$LT$T$GT$5ok_or17h61dc4c3275c140d2E+0x25>
    52a5:	eb 12                	jmp    52b9 <_ZN4core6option15Option$LT$T$GT$5ok_or17h61dc4c3275c140d2E+0x39>
    52a7:	c6 44 24 17 00       	mov    BYTE PTR [rsp+0x17],0x0
    52ac:	48 c7 44 24 08 00 00 	mov    QWORD PTR [rsp+0x8],0x0
    52b3:	00 00 
    52b5:	eb 10                	jmp    52c7 <_ZN4core6option15Option$LT$T$GT$5ok_or17h61dc4c3275c140d2E+0x47>
    52b7:	0f 0b                	ud2    
    52b9:	48 8b 04 24          	mov    rax,QWORD PTR [rsp]
    52bd:	48 89 44 24 20       	mov    QWORD PTR [rsp+0x20],rax
    52c2:	48 89 44 24 08       	mov    QWORD PTR [rsp+0x8],rax
    52c7:	f6 44 24 17 01       	test   BYTE PTR [rsp+0x17],0x1
    52cc:	75 0a                	jne    52d8 <_ZN4core6option15Option$LT$T$GT$5ok_or17h61dc4c3275c140d2E+0x58>
    52ce:	48 8b 44 24 08       	mov    rax,QWORD PTR [rsp+0x8]
    52d3:	48 83 c4 38          	add    rsp,0x38
    52d7:	c3                   	ret    
    52d8:	c6 44 24 17 00       	mov    BYTE PTR [rsp+0x17],0x0
    52dd:	eb ef                	jmp    52ce <_ZN4core6option15Option$LT$T$GT$5ok_or17h61dc4c3275c140d2E+0x4e>
    52df:	90                   	nop

00000000000052e0 <_ZN4core3ptr20slice_from_raw_parts17hfeaaff483c22c786E>:
    52e0:	48 83 ec 30          	sub    rsp,0x30
    52e4:	48 89 7c 24 20       	mov    QWORD PTR [rsp+0x20],rdi
    52e9:	48 89 74 24 28       	mov    QWORD PTR [rsp+0x28],rsi
    52ee:	48 89 7c 24 10       	mov    QWORD PTR [rsp+0x10],rdi
    52f3:	48 89 74 24 18       	mov    QWORD PTR [rsp+0x18],rsi
    52f8:	48 8b 44 24 10       	mov    rax,QWORD PTR [rsp+0x10]
    52fd:	48 8b 4c 24 18       	mov    rcx,QWORD PTR [rsp+0x18]
    5302:	48 89 04 24          	mov    QWORD PTR [rsp],rax
    5306:	48 89 4c 24 08       	mov    QWORD PTR [rsp+0x8],rcx
    530b:	48 8b 04 24          	mov    rax,QWORD PTR [rsp]
    530f:	48 8b 54 24 08       	mov    rdx,QWORD PTR [rsp+0x8]
    5314:	48 83 c4 30          	add    rsp,0x30
    5318:	c3                   	ret    
    5319:	0f 1f 80 00 00 00 00 	nop    DWORD PTR [rax+0x0]

0000000000005320 <_ZN4core3ptr24slice_from_raw_parts_mut17h051ac6d7b5c7fc56E>:
    5320:	48 83 ec 30          	sub    rsp,0x30
    5324:	48 89 7c 24 20       	mov    QWORD PTR [rsp+0x20],rdi
    5329:	48 89 74 24 28       	mov    QWORD PTR [rsp+0x28],rsi
    532e:	48 89 7c 24 10       	mov    QWORD PTR [rsp+0x10],rdi
    5333:	48 89 74 24 18       	mov    QWORD PTR [rsp+0x18],rsi
    5338:	48 8b 44 24 10       	mov    rax,QWORD PTR [rsp+0x10]
    533d:	48 8b 4c 24 18       	mov    rcx,QWORD PTR [rsp+0x18]
    5342:	48 89 04 24          	mov    QWORD PTR [rsp],rax
    5346:	48 89 4c 24 08       	mov    QWORD PTR [rsp+0x8],rcx
    534b:	48 8b 04 24          	mov    rax,QWORD PTR [rsp]
    534f:	48 8b 54 24 08       	mov    rdx,QWORD PTR [rsp+0x8]
    5354:	48 83 c4 30          	add    rsp,0x30
    5358:	c3                   	ret    
    5359:	0f 1f 80 00 00 00 00 	nop    DWORD PTR [rax+0x0]

0000000000005360 <_ZN5alloc7raw_vec11finish_grow17h95dcb0cc86460405E>:
    5360:	48 81 ec 48 01 00 00 	sub    rsp,0x148
    5367:	48 89 f8             	mov    rax,rdi
    536a:	48 89 b4 24 f0 00 00 	mov    QWORD PTR [rsp+0xf0],rsi
    5371:	00 
    5372:	48 89 94 24 f8 00 00 	mov    QWORD PTR [rsp+0xf8],rdx
    5379:	00 
    537a:	4c 89 84 24 00 01 00 	mov    QWORD PTR [rsp+0x100],r8
    5381:	00 
    5382:	4c 8d 4c 24 78       	lea    r9,[rsp+0x78]
    5387:	48 89 7c 24 48       	mov    QWORD PTR [rsp+0x48],rdi
    538c:	4c 89 cf             	mov    rdi,r9
    538f:	4c 89 44 24 40       	mov    QWORD PTR [rsp+0x40],r8
    5394:	48 89 4c 24 38       	mov    QWORD PTR [rsp+0x38],rcx
    5399:	48 89 44 24 30       	mov    QWORD PTR [rsp+0x30],rax
    539e:	e8 2d 1d 00 00       	call   70d0 <_ZN4core6result19Result$LT$T$C$E$GT$7map_err17h877ae9a39eab5a66E>
    53a3:	48 8d 7c 24 60       	lea    rdi,[rsp+0x60]
    53a8:	48 8d 74 24 78       	lea    rsi,[rsp+0x78]
    53ad:	e8 9e 1e 00 00       	call   7250 <_ZN73_$LT$core..result..Result$LT$T$C$E$GT$$u20$as$u20$core..ops..try..Try$GT$11into_result17h0421d145dd67077fE>
    53b2:	48 8b 44 24 60       	mov    rax,QWORD PTR [rsp+0x60]
    53b7:	48 85 c0             	test   rax,rax
    53ba:	74 04                	je     53c0 <_ZN5alloc7raw_vec11finish_grow17h95dcb0cc86460405E+0x60>
    53bc:	eb 00                	jmp    53be <_ZN5alloc7raw_vec11finish_grow17h95dcb0cc86460405E+0x5e>
    53be:	eb 37                	jmp    53f7 <_ZN5alloc7raw_vec11finish_grow17h95dcb0cc86460405E+0x97>
    53c0:	48 8b 44 24 68       	mov    rax,QWORD PTR [rsp+0x68]
    53c5:	48 8b 4c 24 70       	mov    rcx,QWORD PTR [rsp+0x70]
    53ca:	48 89 84 24 20 01 00 	mov    QWORD PTR [rsp+0x120],rax
    53d1:	00 
    53d2:	48 89 8c 24 28 01 00 	mov    QWORD PTR [rsp+0x128],rcx
    53d9:	00 
    53da:	48 89 44 24 50       	mov    QWORD PTR [rsp+0x50],rax
    53df:	48 89 4c 24 58       	mov    QWORD PTR [rsp+0x58],rcx
    53e4:	48 8d 7c 24 50       	lea    rdi,[rsp+0x50]
    53e9:	e8 12 37 00 00       	call   8b00 <_ZN4core5alloc6layout6Layout4size17h1ca534bde82f7d8fE>
    53ee:	48 89 44 24 28       	mov    QWORD PTR [rsp+0x28],rax
    53f3:	eb 58                	jmp    544d <_ZN5alloc7raw_vec11finish_grow17h95dcb0cc86460405E+0xed>
    53f5:	0f 0b                	ud2    
    53f7:	48 8b 44 24 68       	mov    rax,QWORD PTR [rsp+0x68]
    53fc:	48 8b 4c 24 70       	mov    rcx,QWORD PTR [rsp+0x70]
    5401:	48 89 84 24 10 01 00 	mov    QWORD PTR [rsp+0x110],rax
    5408:	00 
    5409:	48 89 8c 24 18 01 00 	mov    QWORD PTR [rsp+0x118],rcx
    5410:	00 
    5411:	48 89 c7             	mov    rdi,rax
    5414:	48 89 ce             	mov    rsi,rcx
    5417:	e8 94 32 00 00       	call   86b0 <_ZN50_$LT$T$u20$as$u20$core..convert..From$LT$T$GT$$GT$4from17hf1f74836f744845fE>
    541c:	48 89 44 24 20       	mov    QWORD PTR [rsp+0x20],rax
    5421:	48 89 54 24 18       	mov    QWORD PTR [rsp+0x18],rdx
    5426:	eb 0d                	jmp    5435 <_ZN5alloc7raw_vec11finish_grow17h95dcb0cc86460405E+0xd5>
    5428:	48 8b 44 24 30       	mov    rax,QWORD PTR [rsp+0x30]
    542d:	48 81 c4 48 01 00 00 	add    rsp,0x148
    5434:	c3                   	ret    
    5435:	48 8b 7c 24 48       	mov    rdi,QWORD PTR [rsp+0x48]
    543a:	48 8b 74 24 20       	mov    rsi,QWORD PTR [rsp+0x20]
    543f:	48 8b 54 24 18       	mov    rdx,QWORD PTR [rsp+0x18]
    5444:	e8 57 1d 00 00       	call   71a0 <_ZN73_$LT$core..result..Result$LT$T$C$E$GT$$u20$as$u20$core..ops..try..Try$GT$10from_error17h190cdba8a62999e0E>
    5449:	eb 00                	jmp    544b <_ZN5alloc7raw_vec11finish_grow17h95dcb0cc86460405E+0xeb>
    544b:	eb db                	jmp    5428 <_ZN5alloc7raw_vec11finish_grow17h95dcb0cc86460405E+0xc8>
    544d:	48 8d bc 24 b0 00 00 	lea    rdi,[rsp+0xb0]
    5454:	00 
    5455:	48 8b 74 24 28       	mov    rsi,QWORD PTR [rsp+0x28]
    545a:	e8 01 0e 00 00       	call   6260 <_ZN5alloc7raw_vec11alloc_guard17hce84c63a38f505b3E>
    545f:	48 8d bc 24 98 00 00 	lea    rdi,[rsp+0x98]
    5466:	00 
    5467:	48 8d b4 24 b0 00 00 	lea    rsi,[rsp+0xb0]
    546e:	00 
    546f:	e8 2c 1e 00 00       	call   72a0 <_ZN73_$LT$core..result..Result$LT$T$C$E$GT$$u20$as$u20$core..ops..try..Try$GT$11into_result17h3280a633ba267a8bE>
    5474:	48 8b 84 24 98 00 00 	mov    rax,QWORD PTR [rsp+0x98]
    547b:	00 
    547c:	48 85 c0             	test   rax,rax
    547f:	74 04                	je     5485 <_ZN5alloc7raw_vec11finish_grow17h95dcb0cc86460405E+0x125>
    5481:	eb 00                	jmp    5483 <_ZN5alloc7raw_vec11finish_grow17h95dcb0cc86460405E+0x123>
    5483:	eb 20                	jmp    54a5 <_ZN5alloc7raw_vec11finish_grow17h95dcb0cc86460405E+0x145>
    5485:	31 c0                	xor    eax,eax
    5487:	89 c1                	mov    ecx,eax
    5489:	48 8b 54 24 38       	mov    rdx,QWORD PTR [rsp+0x38]
    548e:	48 83 3a 00          	cmp    QWORD PTR [rdx],0x0
    5492:	be 01 00 00 00       	mov    esi,0x1
    5497:	48 0f 44 f1          	cmove  rsi,rcx
    549b:	48 83 fe 01          	cmp    rsi,0x1
    549f:	74 78                	je     5519 <_ZN5alloc7raw_vec11finish_grow17h95dcb0cc86460405E+0x1b9>
    54a1:	eb 50                	jmp    54f3 <_ZN5alloc7raw_vec11finish_grow17h95dcb0cc86460405E+0x193>
    54a3:	0f 0b                	ud2    
    54a5:	48 8b 84 24 a0 00 00 	mov    rax,QWORD PTR [rsp+0xa0]
    54ac:	00 
    54ad:	48 8b 8c 24 a8 00 00 	mov    rcx,QWORD PTR [rsp+0xa8]
    54b4:	00 
    54b5:	48 89 84 24 30 01 00 	mov    QWORD PTR [rsp+0x130],rax
    54bc:	00 
    54bd:	48 89 8c 24 38 01 00 	mov    QWORD PTR [rsp+0x138],rcx
    54c4:	00 
    54c5:	48 89 c7             	mov    rdi,rax
    54c8:	48 89 ce             	mov    rsi,rcx
    54cb:	e8 e0 31 00 00       	call   86b0 <_ZN50_$LT$T$u20$as$u20$core..convert..From$LT$T$GT$$GT$4from17hf1f74836f744845fE>
    54d0:	48 89 44 24 10       	mov    QWORD PTR [rsp+0x10],rax
    54d5:	48 89 54 24 08       	mov    QWORD PTR [rsp+0x8],rdx
    54da:	48 8b 7c 24 48       	mov    rdi,QWORD PTR [rsp+0x48]
    54df:	48 8b 74 24 10       	mov    rsi,QWORD PTR [rsp+0x10]
    54e4:	48 8b 54 24 08       	mov    rdx,QWORD PTR [rsp+0x8]
    54e9:	e8 b2 1c 00 00       	call   71a0 <_ZN73_$LT$core..result..Result$LT$T$C$E$GT$$u20$as$u20$core..ops..try..Try$GT$10from_error17h190cdba8a62999e0E>
    54ee:	e9 58 ff ff ff       	jmp    544b <_ZN5alloc7raw_vec11finish_grow17h95dcb0cc86460405E+0xeb>
    54f3:	48 8b 74 24 50       	mov    rsi,QWORD PTR [rsp+0x50]
    54f8:	48 8b 54 24 58       	mov    rdx,QWORD PTR [rsp+0x58]
    54fd:	48 8b 7c 24 40       	mov    rdi,QWORD PTR [rsp+0x40]
    5502:	e8 29 17 00 00       	call   6c30 <_ZN62_$LT$alloc..alloc..Global$u20$as$u20$core..alloc..AllocRef$GT$5alloc17h7036085b6c983fa7E>
    5507:	48 89 94 24 d0 00 00 	mov    QWORD PTR [rsp+0xd0],rdx
    550e:	00 
    550f:	48 89 84 24 c8 00 00 	mov    QWORD PTR [rsp+0xc8],rax
    5516:	00 
    5517:	eb 7d                	jmp    5596 <_ZN5alloc7raw_vec11finish_grow17h95dcb0cc86460405E+0x236>
    5519:	48 8b 44 24 38       	mov    rax,QWORD PTR [rsp+0x38]
    551e:	48 8b 08             	mov    rcx,QWORD PTR [rax]
    5521:	48 89 8c 24 40 01 00 	mov    QWORD PTR [rsp+0x140],rcx
    5528:	00 
    5529:	48 8b 50 08          	mov    rdx,QWORD PTR [rax+0x8]
    552d:	48 8b 70 10          	mov    rsi,QWORD PTR [rax+0x10]
    5531:	48 89 94 24 d8 00 00 	mov    QWORD PTR [rsp+0xd8],rdx
    5538:	00 
    5539:	48 89 b4 24 e0 00 00 	mov    QWORD PTR [rsp+0xe0],rsi
    5540:	00 
    5541:	48 8d bc 24 d8 00 00 	lea    rdi,[rsp+0xd8]
    5548:	00 
    5549:	48 89 0c 24          	mov    QWORD PTR [rsp],rcx
    554d:	e8 be 35 00 00       	call   8b10 <_ZN4core5alloc6layout6Layout5align17h4d20852f32a8a9fdE>
    5552:	48 8d 7c 24 50       	lea    rdi,[rsp+0x50]
    5557:	e8 b4 35 00 00       	call   8b10 <_ZN4core5alloc6layout6Layout5align17h4d20852f32a8a9fdE>
    555c:	48 8b 94 24 d8 00 00 	mov    rdx,QWORD PTR [rsp+0xd8]
    5563:	00 
    5564:	48 8b 8c 24 e0 00 00 	mov    rcx,QWORD PTR [rsp+0xe0]
    556b:	00 
    556c:	4c 8b 44 24 50       	mov    r8,QWORD PTR [rsp+0x50]
    5571:	4c 8b 4c 24 58       	mov    r9,QWORD PTR [rsp+0x58]
    5576:	48 8b 7c 24 40       	mov    rdi,QWORD PTR [rsp+0x40]
    557b:	48 8b 34 24          	mov    rsi,QWORD PTR [rsp]
    557f:	e8 5c 16 00 00       	call   6be0 <_ZN62_$LT$alloc..alloc..Global$u20$as$u20$core..alloc..AllocRef$GT$4grow17hea2c1dcc4fdd5102E>
    5584:	48 89 94 24 d0 00 00 	mov    QWORD PTR [rsp+0xd0],rdx
    558b:	00 
    558c:	48 89 84 24 c8 00 00 	mov    QWORD PTR [rsp+0xc8],rax
    5593:	00 
    5594:	eb 02                	jmp    5598 <_ZN5alloc7raw_vec11finish_grow17h95dcb0cc86460405E+0x238>
    5596:	eb 00                	jmp    5598 <_ZN5alloc7raw_vec11finish_grow17h95dcb0cc86460405E+0x238>
    5598:	48 8b b4 24 c8 00 00 	mov    rsi,QWORD PTR [rsp+0xc8]
    559f:	00 
    55a0:	48 8b 94 24 d0 00 00 	mov    rdx,QWORD PTR [rsp+0xd0]
    55a7:	00 
    55a8:	48 8d 44 24 50       	lea    rax,[rsp+0x50]
    55ad:	48 89 84 24 e8 00 00 	mov    QWORD PTR [rsp+0xe8],rax
    55b4:	00 
    55b5:	48 8b 8c 24 e8 00 00 	mov    rcx,QWORD PTR [rsp+0xe8]
    55bc:	00 
    55bd:	48 8b 7c 24 48       	mov    rdi,QWORD PTR [rsp+0x48]
    55c2:	e8 29 1a 00 00       	call   6ff0 <_ZN4core6result19Result$LT$T$C$E$GT$7map_err17h3950e799bc700768E>
    55c7:	e9 5c fe ff ff       	jmp    5428 <_ZN5alloc7raw_vec11finish_grow17h95dcb0cc86460405E+0xc8>
    55cc:	0f 1f 40 00          	nop    DWORD PTR [rax+0x0]

00000000000055d0 <_ZN5alloc7raw_vec11finish_grow28_$u7b$$u7b$closure$u7d$$u7d$17h98109e0c61342f5eE>:
    55d0:	48 83 ec 20          	sub    rsp,0x20
    55d4:	48 89 7c 24 10       	mov    QWORD PTR [rsp+0x10],rdi
    55d9:	48 8b 07             	mov    rax,QWORD PTR [rdi]
    55dc:	48 8b 4f 08          	mov    rcx,QWORD PTR [rdi+0x8]
    55e0:	48 89 04 24          	mov    QWORD PTR [rsp],rax
    55e4:	48 89 4c 24 08       	mov    QWORD PTR [rsp+0x8],rcx
    55e9:	48 8b 04 24          	mov    rax,QWORD PTR [rsp]
    55ed:	48 8b 54 24 08       	mov    rdx,QWORD PTR [rsp+0x8]
    55f2:	48 83 c4 20          	add    rsp,0x20
    55f6:	c3                   	ret    
    55f7:	66 0f 1f 84 00 00 00 	nop    WORD PTR [rax+rax*1+0x0]
    55fe:	00 00 

0000000000005600 <_ZN5alloc7raw_vec11finish_grow28_$u7b$$u7b$closure$u7d$$u7d$17hdfc49ae72e40448aE>:
    5600:	48 83 ec 20          	sub    rsp,0x20
    5604:	48 c7 44 24 08 00 00 	mov    QWORD PTR [rsp+0x8],0x0
    560b:	00 00 
    560d:	48 8b 04 24          	mov    rax,QWORD PTR [rsp]
    5611:	48 8b 54 24 08       	mov    rdx,QWORD PTR [rsp+0x8]
    5616:	48 83 c4 20          	add    rsp,0x20
    561a:	c3                   	ret    
    561b:	0f 1f 44 00 00       	nop    DWORD PTR [rax+rax*1+0x0]

0000000000005620 <_ZN5alloc7raw_vec15RawVec$LT$T$GT$13with_capacity17h35069c2023b0d62fE>:
    5620:	48 83 ec 28          	sub    rsp,0x28
    5624:	48 89 7c 24 20       	mov    QWORD PTR [rsp+0x20],rdi
    5629:	e8 42 09 00 00       	call   5f70 <_ZN5alloc7raw_vec19RawVec$LT$T$C$A$GT$16with_capacity_in17h66e56df3670f82a7E>
    562e:	48 89 44 24 10       	mov    QWORD PTR [rsp+0x10],rax
    5633:	48 89 54 24 08       	mov    QWORD PTR [rsp+0x8],rdx
    5638:	48 8b 44 24 10       	mov    rax,QWORD PTR [rsp+0x10]
    563d:	48 8b 54 24 08       	mov    rdx,QWORD PTR [rsp+0x8]
    5642:	48 83 c4 28          	add    rsp,0x28
    5646:	c3                   	ret    
    5647:	66 0f 1f 84 00 00 00 	nop    WORD PTR [rax+rax*1+0x0]
    564e:	00 00 

0000000000005650 <_ZN5alloc7raw_vec19RawVec$LT$T$C$A$GT$11allocate_in17hb36be2ddf9fbecd8E>:
    5650:	48 81 ec 58 01 00 00 	sub    rsp,0x158
    5657:	40 80 e6 01          	and    sil,0x1
    565b:	40 88 b4 24 9f 00 00 	mov    BYTE PTR [rsp+0x9f],sil
    5662:	00 
    5663:	48 89 bc 24 08 01 00 	mov    QWORD PTR [rsp+0x108],rdi
    566a:	00 
    566b:	c6 84 24 07 01 00 00 	mov    BYTE PTR [rsp+0x107],0x0
    5672:	00 
    5673:	c6 84 24 07 01 00 00 	mov    BYTE PTR [rsp+0x107],0x1
    567a:	01 
    567b:	48 c7 84 24 50 01 00 	mov    QWORD PTR [rsp+0x150],0x1
    5682:	00 01 00 00 00 
    5687:	48 8b 84 24 50 01 00 	mov    rax,QWORD PTR [rsp+0x150]
    568e:	00 
    568f:	48 89 bc 24 90 00 00 	mov    QWORD PTR [rsp+0x90],rdi
    5696:	00 
    5697:	48 89 84 24 88 00 00 	mov    QWORD PTR [rsp+0x88],rax
    569e:	00 
    569f:	eb 0f                	jmp    56b0 <_ZN5alloc7raw_vec19RawVec$LT$T$C$A$GT$11allocate_in17hb36be2ddf9fbecd8E+0x60>
    56a1:	48 8b bc 24 10 01 00 	mov    rdi,QWORD PTR [rsp+0x110]
    56a8:	00 
    56a9:	e8 a2 f9 ff ff       	call   5050 <_Unwind_Resume@plt>
    56ae:	0f 0b                	ud2    
    56b0:	48 8b 84 24 88 00 00 	mov    rax,QWORD PTR [rsp+0x88]
    56b7:	00 
    56b8:	48 83 f8 00          	cmp    rax,0x0
    56bc:	74 1c                	je     56da <_ZN5alloc7raw_vec19RawVec$LT$T$C$A$GT$11allocate_in17hb36be2ddf9fbecd8E+0x8a>
    56be:	48 8b bc 24 90 00 00 	mov    rdi,QWORD PTR [rsp+0x90]
    56c5:	00 
    56c6:	e8 55 17 00 00       	call   6e20 <_ZN4core5alloc6layout6Layout5array17h19093e9d9729af45E>
    56cb:	48 89 94 24 80 00 00 	mov    QWORD PTR [rsp+0x80],rdx
    56d2:	00 
    56d3:	48 89 44 24 78       	mov    QWORD PTR [rsp+0x78],rax
    56d8:	eb 38                	jmp    5712 <_ZN5alloc7raw_vec19RawVec$LT$T$C$A$GT$11allocate_in17hb36be2ddf9fbecd8E+0xc2>
    56da:	c6 84 24 07 01 00 00 	mov    BYTE PTR [rsp+0x107],0x0
    56e1:	00 
    56e2:	e8 59 09 00 00       	call   6040 <_ZN5alloc7raw_vec19RawVec$LT$T$C$A$GT$6new_in17h010653467e9a3df1E>
    56e7:	48 89 54 24 70       	mov    QWORD PTR [rsp+0x70],rdx
    56ec:	48 89 44 24 68       	mov    QWORD PTR [rsp+0x68],rax
    56f1:	eb 00                	jmp    56f3 <_ZN5alloc7raw_vec19RawVec$LT$T$C$A$GT$11allocate_in17hb36be2ddf9fbecd8E+0xa3>
    56f3:	48 8b 44 24 68       	mov    rax,QWORD PTR [rsp+0x68]
    56f8:	48 89 84 24 a8 00 00 	mov    QWORD PTR [rsp+0xa8],rax
    56ff:	00 
    5700:	48 8b 4c 24 70       	mov    rcx,QWORD PTR [rsp+0x70]
    5705:	48 89 8c 24 b0 00 00 	mov    QWORD PTR [rsp+0xb0],rcx
    570c:	00 
    570d:	e9 43 02 00 00       	jmp    5955 <_ZN5alloc7raw_vec19RawVec$LT$T$C$A$GT$11allocate_in17hb36be2ddf9fbecd8E+0x305>
    5712:	48 8b 44 24 78       	mov    rax,QWORD PTR [rsp+0x78]
    5717:	48 89 84 24 c8 00 00 	mov    QWORD PTR [rsp+0xc8],rax
    571e:	00 
    571f:	48 8b 8c 24 80 00 00 	mov    rcx,QWORD PTR [rsp+0x80]
    5726:	00 
    5727:	48 89 8c 24 d0 00 00 	mov    QWORD PTR [rsp+0xd0],rcx
    572e:	00 
    572f:	48 8b 94 24 d0 00 00 	mov    rdx,QWORD PTR [rsp+0xd0]
    5736:	00 
    5737:	48 85 d2             	test   rdx,rdx
    573a:	40 0f 94 c6          	sete   sil
    573e:	40 0f b6 fe          	movzx  edi,sil
    5742:	89 fa                	mov    edx,edi
    5744:	75 12                	jne    5758 <_ZN5alloc7raw_vec19RawVec$LT$T$C$A$GT$11allocate_in17hb36be2ddf9fbecd8E+0x108>
    5746:	eb 00                	jmp    5748 <_ZN5alloc7raw_vec19RawVec$LT$T$C$A$GT$11allocate_in17hb36be2ddf9fbecd8E+0xf8>
    5748:	48 8d 05 a1 ce 02 00 	lea    rax,[rip+0x2cea1]        # 325f0 <_ZN5alloc7raw_vec17capacity_overflow17h35f3dcdf1e879e98E>
    574f:	ff d0                	call   rax
    5751:	e9 44 02 00 00       	jmp    599a <_ZN5alloc7raw_vec19RawVec$LT$T$C$A$GT$11allocate_in17hb36be2ddf9fbecd8E+0x34a>
    5756:	0f 0b                	ud2    
    5758:	48 8b 84 24 c8 00 00 	mov    rax,QWORD PTR [rsp+0xc8]
    575f:	00 
    5760:	48 8b 8c 24 d0 00 00 	mov    rcx,QWORD PTR [rsp+0xd0]
    5767:	00 
    5768:	48 89 84 24 20 01 00 	mov    QWORD PTR [rsp+0x120],rax
    576f:	00 
    5770:	48 89 8c 24 28 01 00 	mov    QWORD PTR [rsp+0x128],rcx
    5777:	00 
    5778:	48 89 84 24 b8 00 00 	mov    QWORD PTR [rsp+0xb8],rax
    577f:	00 
    5780:	48 89 8c 24 c0 00 00 	mov    QWORD PTR [rsp+0xc0],rcx
    5787:	00 
    5788:	48 8d bc 24 b8 00 00 	lea    rdi,[rsp+0xb8]
    578f:	00 
    5790:	e8 6b 33 00 00       	call   8b00 <_ZN4core5alloc6layout6Layout4size17h1ca534bde82f7d8fE>
    5795:	48 89 44 24 60       	mov    QWORD PTR [rsp+0x60],rax
    579a:	eb 00                	jmp    579c <_ZN5alloc7raw_vec19RawVec$LT$T$C$A$GT$11allocate_in17hb36be2ddf9fbecd8E+0x14c>
    579c:	48 8d bc 24 d8 00 00 	lea    rdi,[rsp+0xd8]
    57a3:	00 
    57a4:	48 8b 74 24 60       	mov    rsi,QWORD PTR [rsp+0x60]
    57a9:	e8 b2 0a 00 00       	call   6260 <_ZN5alloc7raw_vec11alloc_guard17hce84c63a38f505b3E>
    57ae:	eb 00                	jmp    57b0 <_ZN5alloc7raw_vec19RawVec$LT$T$C$A$GT$11allocate_in17hb36be2ddf9fbecd8E+0x160>
    57b0:	48 8b 84 24 d8 00 00 	mov    rax,QWORD PTR [rsp+0xd8]
    57b7:	00 
    57b8:	48 85 c0             	test   rax,rax
    57bb:	74 12                	je     57cf <_ZN5alloc7raw_vec19RawVec$LT$T$C$A$GT$11allocate_in17hb36be2ddf9fbecd8E+0x17f>
    57bd:	eb 00                	jmp    57bf <_ZN5alloc7raw_vec19RawVec$LT$T$C$A$GT$11allocate_in17hb36be2ddf9fbecd8E+0x16f>
    57bf:	48 8d 05 2a ce 02 00 	lea    rax,[rip+0x2ce2a]        # 325f0 <_ZN5alloc7raw_vec17capacity_overflow17h35f3dcdf1e879e98E>
    57c6:	ff d0                	call   rax
    57c8:	e9 cd 01 00 00       	jmp    599a <_ZN5alloc7raw_vec19RawVec$LT$T$C$A$GT$11allocate_in17hb36be2ddf9fbecd8E+0x34a>
    57cd:	0f 0b                	ud2    
    57cf:	0f b6 84 24 9f 00 00 	movzx  eax,BYTE PTR [rsp+0x9f]
    57d6:	00 
    57d7:	89 c1                	mov    ecx,eax
    57d9:	f6 c1 01             	test   cl,0x1
    57dc:	74 2d                	je     580b <_ZN5alloc7raw_vec19RawVec$LT$T$C$A$GT$11allocate_in17hb36be2ddf9fbecd8E+0x1bb>
    57de:	eb 00                	jmp    57e0 <_ZN5alloc7raw_vec19RawVec$LT$T$C$A$GT$11allocate_in17hb36be2ddf9fbecd8E+0x190>
    57e0:	48 8b b4 24 b8 00 00 	mov    rsi,QWORD PTR [rsp+0xb8]
    57e7:	00 
    57e8:	48 8b 94 24 c0 00 00 	mov    rdx,QWORD PTR [rsp+0xc0]
    57ef:	00 
    57f0:	48 8d bc 24 a0 00 00 	lea    rdi,[rsp+0xa0]
    57f7:	00 
    57f8:	e8 a3 13 00 00       	call   6ba0 <_ZN62_$LT$alloc..alloc..Global$u20$as$u20$core..alloc..AllocRef$GT$12alloc_zeroed17hda632bac1da4a47aE>
    57fd:	48 89 54 24 58       	mov    QWORD PTR [rsp+0x58],rdx
    5802:	48 89 44 24 50       	mov    QWORD PTR [rsp+0x50],rax
    5807:	eb 47                	jmp    5850 <_ZN5alloc7raw_vec19RawVec$LT$T$C$A$GT$11allocate_in17hb36be2ddf9fbecd8E+0x200>
    5809:	0f 0b                	ud2    
    580b:	48 8b b4 24 b8 00 00 	mov    rsi,QWORD PTR [rsp+0xb8]
    5812:	00 
    5813:	48 8b 94 24 c0 00 00 	mov    rdx,QWORD PTR [rsp+0xc0]
    581a:	00 
    581b:	48 8d bc 24 a0 00 00 	lea    rdi,[rsp+0xa0]
    5822:	00 
    5823:	e8 08 14 00 00       	call   6c30 <_ZN62_$LT$alloc..alloc..Global$u20$as$u20$core..alloc..AllocRef$GT$5alloc17h7036085b6c983fa7E>
    5828:	48 89 54 24 48       	mov    QWORD PTR [rsp+0x48],rdx
    582d:	48 89 44 24 40       	mov    QWORD PTR [rsp+0x40],rax
    5832:	eb 00                	jmp    5834 <_ZN5alloc7raw_vec19RawVec$LT$T$C$A$GT$11allocate_in17hb36be2ddf9fbecd8E+0x1e4>
    5834:	48 8b 44 24 40       	mov    rax,QWORD PTR [rsp+0x40]
    5839:	48 89 84 24 f0 00 00 	mov    QWORD PTR [rsp+0xf0],rax
    5840:	00 
    5841:	48 8b 4c 24 48       	mov    rcx,QWORD PTR [rsp+0x48]
    5846:	48 89 8c 24 f8 00 00 	mov    QWORD PTR [rsp+0xf8],rcx
    584d:	00 
    584e:	eb 1a                	jmp    586a <_ZN5alloc7raw_vec19RawVec$LT$T$C$A$GT$11allocate_in17hb36be2ddf9fbecd8E+0x21a>
    5850:	48 8b 44 24 50       	mov    rax,QWORD PTR [rsp+0x50]
    5855:	48 89 84 24 f0 00 00 	mov    QWORD PTR [rsp+0xf0],rax
    585c:	00 
    585d:	48 8b 4c 24 58       	mov    rcx,QWORD PTR [rsp+0x58]
    5862:	48 89 8c 24 f8 00 00 	mov    QWORD PTR [rsp+0xf8],rcx
    5869:	00 
    586a:	48 8b 84 24 f0 00 00 	mov    rax,QWORD PTR [rsp+0xf0]
    5871:	00 
    5872:	48 85 c0             	test   rax,rax
    5875:	0f 94 c1             	sete   cl
    5878:	0f b6 d1             	movzx  edx,cl
    587b:	89 d0                	mov    eax,edx
    587d:	75 1f                	jne    589e <_ZN5alloc7raw_vec19RawVec$LT$T$C$A$GT$11allocate_in17hb36be2ddf9fbecd8E+0x24e>
    587f:	eb 00                	jmp    5881 <_ZN5alloc7raw_vec19RawVec$LT$T$C$A$GT$11allocate_in17hb36be2ddf9fbecd8E+0x231>
    5881:	48 8b bc 24 b8 00 00 	mov    rdi,QWORD PTR [rsp+0xb8]
    5888:	00 
    5889:	48 8b b4 24 c0 00 00 	mov    rsi,QWORD PTR [rsp+0xc0]
    5890:	00 
    5891:	48 8d 05 d8 cc 02 00 	lea    rax,[rip+0x2ccd8]        # 32570 <_ZN5alloc5alloc18handle_alloc_error17hb12bf6f6b6f1927aE>
    5898:	ff d0                	call   rax
    589a:	0f 0b                	ud2    
    589c:	0f 0b                	ud2    
    589e:	48 8b 84 24 f0 00 00 	mov    rax,QWORD PTR [rsp+0xf0]
    58a5:	00 
    58a6:	48 8b 8c 24 f8 00 00 	mov    rcx,QWORD PTR [rsp+0xf8]
    58ad:	00 
    58ae:	48 89 84 24 30 01 00 	mov    QWORD PTR [rsp+0x130],rax
    58b5:	00 
    58b6:	48 89 8c 24 38 01 00 	mov    QWORD PTR [rsp+0x138],rcx
    58bd:	00 
    58be:	48 89 84 24 40 01 00 	mov    QWORD PTR [rsp+0x140],rax
    58c5:	00 
    58c6:	48 89 8c 24 48 01 00 	mov    QWORD PTR [rsp+0x148],rcx
    58cd:	00 
    58ce:	48 89 c7             	mov    rdi,rax
    58d1:	48 89 ce             	mov    rsi,rcx
    58d4:	48 89 44 24 38       	mov    QWORD PTR [rsp+0x38],rax
    58d9:	48 89 4c 24 30       	mov    QWORD PTR [rsp+0x30],rcx
    58de:	e8 2d 1b 00 00       	call   7410 <_ZN4core3ptr8non_null16NonNull$LT$T$GT$4cast17h0902af581e7d28cfE>
    58e3:	48 89 44 24 28       	mov    QWORD PTR [rsp+0x28],rax
    58e8:	eb 00                	jmp    58ea <_ZN5alloc7raw_vec19RawVec$LT$T$C$A$GT$11allocate_in17hb36be2ddf9fbecd8E+0x29a>
    58ea:	48 8b 7c 24 28       	mov    rdi,QWORD PTR [rsp+0x28]
    58ef:	e8 7c 1b 00 00       	call   7470 <_ZN4core3ptr8non_null16NonNull$LT$T$GT$6as_ptr17h6cc5f652a3c8a2aeE>
    58f4:	48 89 44 24 20       	mov    QWORD PTR [rsp+0x20],rax
    58f9:	eb 00                	jmp    58fb <_ZN5alloc7raw_vec19RawVec$LT$T$C$A$GT$11allocate_in17hb36be2ddf9fbecd8E+0x2ab>
    58fb:	48 8b 7c 24 20       	mov    rdi,QWORD PTR [rsp+0x20]
    5900:	e8 0b 1d 00 00       	call   7610 <_ZN4core3ptr6unique15Unique$LT$T$GT$13new_unchecked17h43770b75d2c7d070E>
    5905:	48 89 44 24 18       	mov    QWORD PTR [rsp+0x18],rax
    590a:	eb 00                	jmp    590c <_ZN5alloc7raw_vec19RawVec$LT$T$C$A$GT$11allocate_in17hb36be2ddf9fbecd8E+0x2bc>
    590c:	48 8b 7c 24 38       	mov    rdi,QWORD PTR [rsp+0x38]
    5911:	48 8b 74 24 30       	mov    rsi,QWORD PTR [rsp+0x30]
    5916:	e8 55 1c 00 00       	call   7570 <_ZN4core3ptr8non_null26NonNull$LT$$u5b$T$u5d$$GT$3len17h5f44284ef81e2d82E>
    591b:	48 89 44 24 10       	mov    QWORD PTR [rsp+0x10],rax
    5920:	eb 00                	jmp    5922 <_ZN5alloc7raw_vec19RawVec$LT$T$C$A$GT$11allocate_in17hb36be2ddf9fbecd8E+0x2d2>
    5922:	48 8b 7c 24 10       	mov    rdi,QWORD PTR [rsp+0x10]
    5927:	e8 84 06 00 00       	call   5fb0 <_ZN5alloc7raw_vec19RawVec$LT$T$C$A$GT$19capacity_from_bytes17ha1610229a15b9b76E>
    592c:	48 89 44 24 08       	mov    QWORD PTR [rsp+0x8],rax
    5931:	eb 00                	jmp    5933 <_ZN5alloc7raw_vec19RawVec$LT$T$C$A$GT$11allocate_in17hb36be2ddf9fbecd8E+0x2e3>
    5933:	c6 84 24 07 01 00 00 	mov    BYTE PTR [rsp+0x107],0x0
    593a:	00 
    593b:	48 8b 44 24 18       	mov    rax,QWORD PTR [rsp+0x18]
    5940:	48 89 84 24 a8 00 00 	mov    QWORD PTR [rsp+0xa8],rax
    5947:	00 
    5948:	48 8b 4c 24 08       	mov    rcx,QWORD PTR [rsp+0x8]
    594d:	48 89 8c 24 b0 00 00 	mov    QWORD PTR [rsp+0xb0],rcx
    5954:	00 
    5955:	48 8b 84 24 a8 00 00 	mov    rax,QWORD PTR [rsp+0xa8]
    595c:	00 
    595d:	48 8b 94 24 b0 00 00 	mov    rdx,QWORD PTR [rsp+0xb0]
    5964:	00 
    5965:	48 81 c4 58 01 00 00 	add    rsp,0x158
    596c:	c3                   	ret    
    596d:	c6 84 24 07 01 00 00 	mov    BYTE PTR [rsp+0x107],0x0
    5974:	00 
    5975:	e9 27 fd ff ff       	jmp    56a1 <_ZN5alloc7raw_vec19RawVec$LT$T$C$A$GT$11allocate_in17hb36be2ddf9fbecd8E+0x51>
    597a:	f6 84 24 07 01 00 00 	test   BYTE PTR [rsp+0x107],0x1
    5981:	01 
    5982:	75 e9                	jne    596d <_ZN5alloc7raw_vec19RawVec$LT$T$C$A$GT$11allocate_in17hb36be2ddf9fbecd8E+0x31d>
    5984:	e9 18 fd ff ff       	jmp    56a1 <_ZN5alloc7raw_vec19RawVec$LT$T$C$A$GT$11allocate_in17hb36be2ddf9fbecd8E+0x51>
    5989:	48 89 84 24 10 01 00 	mov    QWORD PTR [rsp+0x110],rax
    5990:	00 
    5991:	89 94 24 18 01 00 00 	mov    DWORD PTR [rsp+0x118],edx
    5998:	eb e0                	jmp    597a <_ZN5alloc7raw_vec19RawVec$LT$T$C$A$GT$11allocate_in17hb36be2ddf9fbecd8E+0x32a>
    599a:	0f 0b                	ud2    
    599c:	0f 1f 40 00          	nop    DWORD PTR [rax+0x0]

00000000000059a0 <_ZN5alloc7raw_vec19RawVec$LT$T$C$A$GT$11try_reserve17hccfa233ec646daaaE>:
    59a0:	48 83 ec 48          	sub    rsp,0x48
    59a4:	48 89 f8             	mov    rax,rdi
    59a7:	48 89 74 24 30       	mov    QWORD PTR [rsp+0x30],rsi
    59ac:	48 89 54 24 38       	mov    QWORD PTR [rsp+0x38],rdx
    59b1:	48 89 4c 24 40       	mov    QWORD PTR [rsp+0x40],rcx
    59b6:	48 89 7c 24 28       	mov    QWORD PTR [rsp+0x28],rdi
    59bb:	48 89 f7             	mov    rdi,rsi
    59be:	48 89 74 24 20       	mov    QWORD PTR [rsp+0x20],rsi
    59c3:	48 89 d6             	mov    rsi,rdx
    59c6:	48 89 54 24 18       	mov    QWORD PTR [rsp+0x18],rdx
    59cb:	48 89 ca             	mov    rdx,rcx
    59ce:	48 89 4c 24 10       	mov    QWORD PTR [rsp+0x10],rcx
    59d3:	48 89 44 24 08       	mov    QWORD PTR [rsp+0x8],rax
    59d8:	e8 43 00 00 00       	call   5a20 <_ZN5alloc7raw_vec19RawVec$LT$T$C$A$GT$13needs_to_grow17h718383ebadebb7e1E>
    59dd:	88 44 24 07          	mov    BYTE PTR [rsp+0x7],al
    59e1:	8a 44 24 07          	mov    al,BYTE PTR [rsp+0x7]
    59e5:	a8 01                	test   al,0x1
    59e7:	75 10                	jne    59f9 <_ZN5alloc7raw_vec19RawVec$LT$T$C$A$GT$11try_reserve17hccfa233ec646daaaE+0x59>
    59e9:	eb 00                	jmp    59eb <_ZN5alloc7raw_vec19RawVec$LT$T$C$A$GT$11try_reserve17hccfa233ec646daaaE+0x4b>
    59eb:	48 8b 44 24 28       	mov    rax,QWORD PTR [rsp+0x28]
    59f0:	48 c7 00 00 00 00 00 	mov    QWORD PTR [rax],0x0
    59f7:	eb 1b                	jmp    5a14 <_ZN5alloc7raw_vec19RawVec$LT$T$C$A$GT$11try_reserve17hccfa233ec646daaaE+0x74>
    59f9:	48 8b 7c 24 28       	mov    rdi,QWORD PTR [rsp+0x28]
    59fe:	48 8b 74 24 20       	mov    rsi,QWORD PTR [rsp+0x20]
    5a03:	48 8b 54 24 18       	mov    rdx,QWORD PTR [rsp+0x18]
    5a08:	48 8b 4c 24 10       	mov    rcx,QWORD PTR [rsp+0x10]
    5a0d:	e8 0e 02 00 00       	call   5c20 <_ZN5alloc7raw_vec19RawVec$LT$T$C$A$GT$14grow_amortized17he245d0ff4734ead3E>
    5a12:	eb 00                	jmp    5a14 <_ZN5alloc7raw_vec19RawVec$LT$T$C$A$GT$11try_reserve17hccfa233ec646daaaE+0x74>
    5a14:	48 8b 44 24 08       	mov    rax,QWORD PTR [rsp+0x8]
    5a19:	48 83 c4 48          	add    rsp,0x48
    5a1d:	c3                   	ret    
    5a1e:	66 90                	xchg   ax,ax

0000000000005a20 <_ZN5alloc7raw_vec19RawVec$LT$T$C$A$GT$13needs_to_grow17h718383ebadebb7e1E>:
    5a20:	48 83 ec 58          	sub    rsp,0x58
    5a24:	48 89 7c 24 28       	mov    QWORD PTR [rsp+0x28],rdi
    5a29:	48 89 74 24 30       	mov    QWORD PTR [rsp+0x30],rsi
    5a2e:	48 89 54 24 38       	mov    QWORD PTR [rsp+0x38],rdx
    5a33:	48 89 7c 24 48       	mov    QWORD PTR [rsp+0x48],rdi
    5a38:	48 c7 44 24 50 01 00 	mov    QWORD PTR [rsp+0x50],0x1
    5a3f:	00 00 
    5a41:	48 83 7c 24 50 00    	cmp    QWORD PTR [rsp+0x50],0x0
    5a47:	48 89 7c 24 20       	mov    QWORD PTR [rsp+0x20],rdi
    5a4c:	48 89 74 24 18       	mov    QWORD PTR [rsp+0x18],rsi
    5a51:	48 89 54 24 10       	mov    QWORD PTR [rsp+0x10],rdx
    5a56:	74 10                	je     5a68 <_ZN5alloc7raw_vec19RawVec$LT$T$C$A$GT$13needs_to_grow17h718383ebadebb7e1E+0x48>
    5a58:	48 8b 44 24 20       	mov    rax,QWORD PTR [rsp+0x20]
    5a5d:	48 8b 48 08          	mov    rcx,QWORD PTR [rax+0x8]
    5a61:	48 89 4c 24 40       	mov    QWORD PTR [rsp+0x40],rcx
    5a66:	eb 09                	jmp    5a71 <_ZN5alloc7raw_vec19RawVec$LT$T$C$A$GT$13needs_to_grow17h718383ebadebb7e1E+0x51>
    5a68:	48 c7 44 24 40 ff ff 	mov    QWORD PTR [rsp+0x40],0xffffffffffffffff
    5a6f:	ff ff 
    5a71:	48 8b 7c 24 40       	mov    rdi,QWORD PTR [rsp+0x40]
    5a76:	48 89 7c 24 08       	mov    QWORD PTR [rsp+0x8],rdi
    5a7b:	48 8b 7c 24 08       	mov    rdi,QWORD PTR [rsp+0x8]
    5a80:	48 8b 74 24 18       	mov    rsi,QWORD PTR [rsp+0x18]
    5a85:	e8 76 1e 00 00       	call   7900 <_ZN4core3num23_$LT$impl$u20$usize$GT$12wrapping_sub17h024ee33beffc4823E>
    5a8a:	48 89 04 24          	mov    QWORD PTR [rsp],rax
    5a8e:	48 8b 44 24 10       	mov    rax,QWORD PTR [rsp+0x10]
    5a93:	48 8b 0c 24          	mov    rcx,QWORD PTR [rsp]
    5a97:	48 39 c8             	cmp    rax,rcx
    5a9a:	0f 97 c2             	seta   dl
    5a9d:	80 e2 01             	and    dl,0x1
    5aa0:	0f b6 f2             	movzx  esi,dl
    5aa3:	89 f0                	mov    eax,esi
    5aa5:	48 83 c4 58          	add    rsp,0x58
    5aa9:	c3                   	ret    
    5aaa:	66 0f 1f 44 00 00    	nop    WORD PTR [rax+rax*1+0x0]

0000000000005ab0 <_ZN5alloc7raw_vec19RawVec$LT$T$C$A$GT$14current_memory17h52cdded12bdbc807E>:
    5ab0:	48 81 ec b8 00 00 00 	sub    rsp,0xb8
    5ab7:	48 89 f8             	mov    rax,rdi
    5aba:	48 89 74 24 78       	mov    QWORD PTR [rsp+0x78],rsi
    5abf:	48 c7 84 24 a0 00 00 	mov    QWORD PTR [rsp+0xa0],0x1
    5ac6:	00 01 00 00 00 
    5acb:	48 8b 8c 24 a0 00 00 	mov    rcx,QWORD PTR [rsp+0xa0]
    5ad2:	00 
    5ad3:	48 89 74 24 50       	mov    QWORD PTR [rsp+0x50],rsi
    5ad8:	48 89 7c 24 48       	mov    QWORD PTR [rsp+0x48],rdi
    5add:	48 89 44 24 40       	mov    QWORD PTR [rsp+0x40],rax
    5ae2:	48 89 4c 24 38       	mov    QWORD PTR [rsp+0x38],rcx
    5ae7:	eb 25                	jmp    5b0e <_ZN5alloc7raw_vec19RawVec$LT$T$C$A$GT$14current_memory17h52cdded12bdbc807E+0x5e>
    5ae9:	c6 44 24 5f 01       	mov    BYTE PTR [rsp+0x5f],0x1
    5aee:	eb 15                	jmp    5b05 <_ZN5alloc7raw_vec19RawVec$LT$T$C$A$GT$14current_memory17h52cdded12bdbc807E+0x55>
    5af0:	c6 44 24 5f 00       	mov    BYTE PTR [rsp+0x5f],0x0
    5af5:	eb 0e                	jmp    5b05 <_ZN5alloc7raw_vec19RawVec$LT$T$C$A$GT$14current_memory17h52cdded12bdbc807E+0x55>
    5af7:	48 8b 44 24 50       	mov    rax,QWORD PTR [rsp+0x50]
    5afc:	48 83 78 08 00       	cmp    QWORD PTR [rax+0x8],0x0
    5b01:	74 e6                	je     5ae9 <_ZN5alloc7raw_vec19RawVec$LT$T$C$A$GT$14current_memory17h52cdded12bdbc807E+0x39>
    5b03:	eb eb                	jmp    5af0 <_ZN5alloc7raw_vec19RawVec$LT$T$C$A$GT$14current_memory17h52cdded12bdbc807E+0x40>
    5b05:	f6 44 24 5f 01       	test   BYTE PTR [rsp+0x5f],0x1
    5b0a:	75 32                	jne    5b3e <_ZN5alloc7raw_vec19RawVec$LT$T$C$A$GT$14current_memory17h52cdded12bdbc807E+0x8e>
    5b0c:	eb 0d                	jmp    5b1b <_ZN5alloc7raw_vec19RawVec$LT$T$C$A$GT$14current_memory17h52cdded12bdbc807E+0x6b>
    5b0e:	48 8b 44 24 38       	mov    rax,QWORD PTR [rsp+0x38]
    5b13:	48 83 f8 00          	cmp    rax,0x0
    5b17:	74 d0                	je     5ae9 <_ZN5alloc7raw_vec19RawVec$LT$T$C$A$GT$14current_memory17h52cdded12bdbc807E+0x39>
    5b19:	eb dc                	jmp    5af7 <_ZN5alloc7raw_vec19RawVec$LT$T$C$A$GT$14current_memory17h52cdded12bdbc807E+0x47>
    5b1b:	48 c7 84 24 b0 00 00 	mov    QWORD PTR [rsp+0xb0],0x1
    5b22:	00 01 00 00 00 
    5b27:	48 8b 84 24 b0 00 00 	mov    rax,QWORD PTR [rsp+0xb0]
    5b2e:	00 
    5b2f:	48 89 84 24 80 00 00 	mov    QWORD PTR [rsp+0x80],rax
    5b36:	00 
    5b37:	48 89 44 24 30       	mov    QWORD PTR [rsp+0x30],rax
    5b3c:	eb 11                	jmp    5b4f <_ZN5alloc7raw_vec19RawVec$LT$T$C$A$GT$14current_memory17h52cdded12bdbc807E+0x9f>
    5b3e:	48 8b 44 24 48       	mov    rax,QWORD PTR [rsp+0x48]
    5b43:	48 c7 00 00 00 00 00 	mov    QWORD PTR [rax],0x0
    5b4a:	e9 b5 00 00 00       	jmp    5c04 <_ZN5alloc7raw_vec19RawVec$LT$T$C$A$GT$14current_memory17h52cdded12bdbc807E+0x154>
    5b4f:	48 c7 84 24 a8 00 00 	mov    QWORD PTR [rsp+0xa8],0x1
    5b56:	00 01 00 00 00 
    5b5b:	48 8b 84 24 a8 00 00 	mov    rax,QWORD PTR [rsp+0xa8]
    5b62:	00 
    5b63:	48 89 44 24 28       	mov    QWORD PTR [rsp+0x28],rax
    5b68:	48 8b 44 24 28       	mov    rax,QWORD PTR [rsp+0x28]
    5b6d:	48 8b 4c 24 50       	mov    rcx,QWORD PTR [rsp+0x50]
    5b72:	48 0f af 41 08       	imul   rax,QWORD PTR [rcx+0x8]
    5b77:	48 89 84 24 88 00 00 	mov    QWORD PTR [rsp+0x88],rax
    5b7e:	00 
    5b7f:	48 89 c7             	mov    rdi,rax
    5b82:	48 8b 74 24 30       	mov    rsi,QWORD PTR [rsp+0x30]
    5b87:	e8 24 2f 00 00       	call   8ab0 <_ZN4core5alloc6layout6Layout25from_size_align_unchecked17h4a1243d30a33400dE>
    5b8c:	48 89 84 24 90 00 00 	mov    QWORD PTR [rsp+0x90],rax
    5b93:	00 
    5b94:	48 89 94 24 98 00 00 	mov    QWORD PTR [rsp+0x98],rdx
    5b9b:	00 
    5b9c:	48 89 44 24 20       	mov    QWORD PTR [rsp+0x20],rax
    5ba1:	48 89 54 24 18       	mov    QWORD PTR [rsp+0x18],rdx
    5ba6:	48 8b 44 24 50       	mov    rax,QWORD PTR [rsp+0x50]
    5bab:	48 8b 38             	mov    rdi,QWORD PTR [rax]
    5bae:	e8 7d 1a 00 00       	call   7630 <_ZN4core3ptr6unique15Unique$LT$T$GT$4cast17h1a50a09a54dee2a4E>
    5bb3:	48 89 44 24 10       	mov    QWORD PTR [rsp+0x10],rax
    5bb8:	48 8b 7c 24 10       	mov    rdi,QWORD PTR [rsp+0x10]
    5bbd:	e8 de 1a 00 00       	call   76a0 <_ZN50_$LT$T$u20$as$u20$core..convert..Into$LT$U$GT$$GT$4into17h156d399f63b70d5aE>
    5bc2:	48 89 44 24 08       	mov    QWORD PTR [rsp+0x8],rax
    5bc7:	48 8b 44 24 08       	mov    rax,QWORD PTR [rsp+0x8]
    5bcc:	48 89 44 24 60       	mov    QWORD PTR [rsp+0x60],rax
    5bd1:	48 8b 4c 24 20       	mov    rcx,QWORD PTR [rsp+0x20]
    5bd6:	48 89 4c 24 68       	mov    QWORD PTR [rsp+0x68],rcx
    5bdb:	48 8b 54 24 18       	mov    rdx,QWORD PTR [rsp+0x18]
    5be0:	48 89 54 24 70       	mov    QWORD PTR [rsp+0x70],rdx
    5be5:	48 8b 74 24 60       	mov    rsi,QWORD PTR [rsp+0x60]
    5bea:	48 8b 7c 24 48       	mov    rdi,QWORD PTR [rsp+0x48]
    5bef:	48 89 37             	mov    QWORD PTR [rdi],rsi
    5bf2:	48 8b 74 24 68       	mov    rsi,QWORD PTR [rsp+0x68]
    5bf7:	48 89 77 08          	mov    QWORD PTR [rdi+0x8],rsi
    5bfb:	48 8b 74 24 70       	mov    rsi,QWORD PTR [rsp+0x70]
    5c00:	48 89 77 10          	mov    QWORD PTR [rdi+0x10],rsi
    5c04:	48 8b 44 24 40       	mov    rax,QWORD PTR [rsp+0x40]
    5c09:	48 81 c4 b8 00 00 00 	add    rsp,0xb8
    5c10:	c3                   	ret    
    5c11:	66 2e 0f 1f 84 00 00 	nop    WORD PTR cs:[rax+rax*1+0x0]
    5c18:	00 00 00 
    5c1b:	0f 1f 44 00 00       	nop    DWORD PTR [rax+rax*1+0x0]

0000000000005c20 <_ZN5alloc7raw_vec19RawVec$LT$T$C$A$GT$14grow_amortized17he245d0ff4734ead3E>:
    5c20:	48 81 ec c8 01 00 00 	sub    rsp,0x1c8
    5c27:	48 89 f8             	mov    rax,rdi
    5c2a:	48 89 b4 24 28 01 00 	mov    QWORD PTR [rsp+0x128],rsi
    5c31:	00 
    5c32:	48 89 94 24 30 01 00 	mov    QWORD PTR [rsp+0x130],rdx
    5c39:	00 
    5c3a:	48 89 8c 24 38 01 00 	mov    QWORD PTR [rsp+0x138],rcx
    5c41:	00 
    5c42:	48 c7 84 24 b8 01 00 	mov    QWORD PTR [rsp+0x1b8],0x1
    5c49:	00 01 00 00 00 
    5c4e:	4c 8b 84 24 b8 01 00 	mov    r8,QWORD PTR [rsp+0x1b8]
    5c55:	00 
    5c56:	48 89 8c 24 80 00 00 	mov    QWORD PTR [rsp+0x80],rcx
    5c5d:	00 
    5c5e:	48 89 54 24 78       	mov    QWORD PTR [rsp+0x78],rdx
    5c63:	48 89 74 24 70       	mov    QWORD PTR [rsp+0x70],rsi
    5c68:	48 89 7c 24 68       	mov    QWORD PTR [rsp+0x68],rdi
    5c6d:	48 89 44 24 60       	mov    QWORD PTR [rsp+0x60],rax
    5c72:	4c 89 44 24 58       	mov    QWORD PTR [rsp+0x58],r8
    5c77:	48 8b 44 24 58       	mov    rax,QWORD PTR [rsp+0x58]
    5c7c:	48 83 f8 00          	cmp    rax,0x0
    5c80:	74 1e                	je     5ca0 <_ZN5alloc7raw_vec19RawVec$LT$T$C$A$GT$14grow_amortized17he245d0ff4734ead3E+0x80>
    5c82:	48 8b 7c 24 78       	mov    rdi,QWORD PTR [rsp+0x78]
    5c87:	48 8b b4 24 80 00 00 	mov    rsi,QWORD PTR [rsp+0x80]
    5c8e:	00 
    5c8f:	e8 3c 1b 00 00       	call   77d0 <_ZN4core3num23_$LT$impl$u20$usize$GT$11checked_add17h7fa25ec84b481a2bE>
    5c94:	48 89 44 24 50       	mov    QWORD PTR [rsp+0x50],rax
    5c99:	48 89 54 24 48       	mov    QWORD PTR [rsp+0x48],rdx
    5c9e:	eb 3d                	jmp    5cdd <_ZN5alloc7raw_vec19RawVec$LT$T$C$A$GT$14grow_amortized17he245d0ff4734ead3E+0xbd>
    5ca0:	48 c7 84 24 90 00 00 	mov    QWORD PTR [rsp+0x90],0x0
    5ca7:	00 00 00 00 00 
    5cac:	48 8b 84 24 88 00 00 	mov    rax,QWORD PTR [rsp+0x88]
    5cb3:	00 
    5cb4:	48 8b 8c 24 90 00 00 	mov    rcx,QWORD PTR [rsp+0x90]
    5cbb:	00 
    5cbc:	48 8b 54 24 68       	mov    rdx,QWORD PTR [rsp+0x68]
    5cc1:	48 89 42 08          	mov    QWORD PTR [rdx+0x8],rax
    5cc5:	48 89 4a 10          	mov    QWORD PTR [rdx+0x10],rcx
    5cc9:	48 c7 02 01 00 00 00 	mov    QWORD PTR [rdx],0x1
    5cd0:	48 8b 44 24 60       	mov    rax,QWORD PTR [rsp+0x60]
    5cd5:	48 81 c4 c8 01 00 00 	add    rsp,0x1c8
    5cdc:	c3                   	ret    
    5cdd:	48 c7 84 24 d0 00 00 	mov    QWORD PTR [rsp+0xd0],0x0
    5ce4:	00 00 00 00 00 
    5ce9:	48 8b 8c 24 c8 00 00 	mov    rcx,QWORD PTR [rsp+0xc8]
    5cf0:	00 
    5cf1:	4c 8b 84 24 d0 00 00 	mov    r8,QWORD PTR [rsp+0xd0]
    5cf8:	00 
    5cf9:	48 8d bc 24 b0 00 00 	lea    rdi,[rsp+0xb0]
    5d00:	00 
    5d01:	48 8b 74 24 50       	mov    rsi,QWORD PTR [rsp+0x50]
    5d06:	48 8b 54 24 48       	mov    rdx,QWORD PTR [rsp+0x48]
    5d0b:	e8 d0 f4 ff ff       	call   51e0 <_ZN4core6option15Option$LT$T$GT$5ok_or17h19d984d3b3a2aaafE>
    5d10:	48 8d bc 24 98 00 00 	lea    rdi,[rsp+0x98]
    5d17:	00 
    5d18:	48 8d b4 24 b0 00 00 	lea    rsi,[rsp+0xb0]
    5d1f:	00 
    5d20:	e8 fb 15 00 00       	call   7320 <_ZN73_$LT$core..result..Result$LT$T$C$E$GT$$u20$as$u20$core..ops..try..Try$GT$11into_result17hdac407d8c4475432E>
    5d25:	48 8b 84 24 98 00 00 	mov    rax,QWORD PTR [rsp+0x98]
    5d2c:	00 
    5d2d:	48 85 c0             	test   rax,rax
    5d30:	74 04                	je     5d36 <_ZN5alloc7raw_vec19RawVec$LT$T$C$A$GT$14grow_amortized17he245d0ff4734ead3E+0x116>
    5d32:	eb 00                	jmp    5d34 <_ZN5alloc7raw_vec19RawVec$LT$T$C$A$GT$14grow_amortized17he245d0ff4734ead3E+0x114>
    5d34:	eb 41                	jmp    5d77 <_ZN5alloc7raw_vec19RawVec$LT$T$C$A$GT$14grow_amortized17he245d0ff4734ead3E+0x157>
    5d36:	48 8b 84 24 a0 00 00 	mov    rax,QWORD PTR [rsp+0xa0]
    5d3d:	00 
    5d3e:	48 89 84 24 50 01 00 	mov    QWORD PTR [rsp+0x150],rax
    5d45:	00 
    5d46:	48 89 84 24 58 01 00 	mov    QWORD PTR [rsp+0x158],rax
    5d4d:	00 
    5d4e:	48 8b 4c 24 70       	mov    rcx,QWORD PTR [rsp+0x70]
    5d53:	48 8b 51 08          	mov    rdx,QWORD PTR [rcx+0x8]
    5d57:	48 c1 e2 01          	shl    rdx,0x1
    5d5b:	48 89 d7             	mov    rdi,rdx
    5d5e:	48 89 c6             	mov    rsi,rax
    5d61:	e8 7a 21 00 00       	call   7ee0 <_ZN4core3cmp3max17h5186e9350fd3f3f1E>
    5d66:	48 89 84 24 60 01 00 	mov    QWORD PTR [rsp+0x160],rax
    5d6d:	00 
    5d6e:	48 89 44 24 40       	mov    QWORD PTR [rsp+0x40],rax
    5d73:	eb 52                	jmp    5dc7 <_ZN5alloc7raw_vec19RawVec$LT$T$C$A$GT$14grow_amortized17he245d0ff4734ead3E+0x1a7>
    5d75:	0f 0b                	ud2    
    5d77:	48 8b 84 24 a0 00 00 	mov    rax,QWORD PTR [rsp+0xa0]
    5d7e:	00 
    5d7f:	48 8b 8c 24 a8 00 00 	mov    rcx,QWORD PTR [rsp+0xa8]
    5d86:	00 
    5d87:	48 89 84 24 40 01 00 	mov    QWORD PTR [rsp+0x140],rax
    5d8e:	00 
    5d8f:	48 89 8c 24 48 01 00 	mov    QWORD PTR [rsp+0x148],rcx
    5d96:	00 
    5d97:	48 89 c7             	mov    rdi,rax
    5d9a:	48 89 ce             	mov    rsi,rcx
    5d9d:	e8 0e 29 00 00       	call   86b0 <_ZN50_$LT$T$u20$as$u20$core..convert..From$LT$T$GT$$GT$4from17hf1f74836f744845fE>
    5da2:	48 89 44 24 38       	mov    QWORD PTR [rsp+0x38],rax
    5da7:	48 89 54 24 30       	mov    QWORD PTR [rsp+0x30],rdx
    5dac:	48 8b 7c 24 68       	mov    rdi,QWORD PTR [rsp+0x68]
    5db1:	48 8b 74 24 38       	mov    rsi,QWORD PTR [rsp+0x38]
    5db6:	48 8b 54 24 30       	mov    rdx,QWORD PTR [rsp+0x30]
    5dbb:	e8 10 14 00 00       	call   71d0 <_ZN73_$LT$core..result..Result$LT$T$C$E$GT$$u20$as$u20$core..ops..try..Try$GT$10from_error17h2349d59ce61c0086E>
    5dc0:	eb 00                	jmp    5dc2 <_ZN5alloc7raw_vec19RawVec$LT$T$C$A$GT$14grow_amortized17he245d0ff4734ead3E+0x1a2>
    5dc2:	e9 09 ff ff ff       	jmp    5cd0 <_ZN5alloc7raw_vec19RawVec$LT$T$C$A$GT$14grow_amortized17he245d0ff4734ead3E+0xb0>
    5dc7:	48 c7 84 24 c0 01 00 	mov    QWORD PTR [rsp+0x1c0],0x1
    5dce:	00 01 00 00 00 
    5dd3:	48 8b 84 24 c0 01 00 	mov    rax,QWORD PTR [rsp+0x1c0]
    5dda:	00 
    5ddb:	48 89 84 24 68 01 00 	mov    QWORD PTR [rsp+0x168],rax
    5de2:	00 
    5de3:	48 89 44 24 28       	mov    QWORD PTR [rsp+0x28],rax
    5de8:	48 8b 44 24 28       	mov    rax,QWORD PTR [rsp+0x28]
    5ded:	48 83 f8 01          	cmp    rax,0x1
    5df1:	74 0f                	je     5e02 <_ZN5alloc7raw_vec19RawVec$LT$T$C$A$GT$14grow_amortized17he245d0ff4734ead3E+0x1e2>
    5df3:	48 8b 44 24 28       	mov    rax,QWORD PTR [rsp+0x28]
    5df8:	48 3d 00 04 00 00    	cmp    rax,0x400
    5dfe:	76 1e                	jbe    5e1e <_ZN5alloc7raw_vec19RawVec$LT$T$C$A$GT$14grow_amortized17he245d0ff4734ead3E+0x1fe>
    5e00:	eb 0e                	jmp    5e10 <_ZN5alloc7raw_vec19RawVec$LT$T$C$A$GT$14grow_amortized17he245d0ff4734ead3E+0x1f0>
    5e02:	48 c7 84 24 d8 00 00 	mov    QWORD PTR [rsp+0xd8],0x8
    5e09:	00 08 00 00 00 
    5e0e:	eb 1c                	jmp    5e2c <_ZN5alloc7raw_vec19RawVec$LT$T$C$A$GT$14grow_amortized17he245d0ff4734ead3E+0x20c>
    5e10:	48 c7 84 24 d8 00 00 	mov    QWORD PTR [rsp+0xd8],0x1
    5e17:	00 01 00 00 00 
    5e1c:	eb 0c                	jmp    5e2a <_ZN5alloc7raw_vec19RawVec$LT$T$C$A$GT$14grow_amortized17he245d0ff4734ead3E+0x20a>
    5e1e:	48 c7 84 24 d8 00 00 	mov    QWORD PTR [rsp+0xd8],0x4
    5e25:	00 04 00 00 00 
    5e2a:	eb 00                	jmp    5e2c <_ZN5alloc7raw_vec19RawVec$LT$T$C$A$GT$14grow_amortized17he245d0ff4734ead3E+0x20c>
    5e2c:	48 8b bc 24 d8 00 00 	mov    rdi,QWORD PTR [rsp+0xd8]
    5e33:	00 
    5e34:	48 8b 74 24 40       	mov    rsi,QWORD PTR [rsp+0x40]
    5e39:	e8 a2 20 00 00       	call   7ee0 <_ZN4core3cmp3max17h5186e9350fd3f3f1E>
    5e3e:	48 89 84 24 70 01 00 	mov    QWORD PTR [rsp+0x170],rax
    5e45:	00 
    5e46:	48 89 44 24 20       	mov    QWORD PTR [rsp+0x20],rax
    5e4b:	48 8b 7c 24 20       	mov    rdi,QWORD PTR [rsp+0x20]
    5e50:	e8 cb 0f 00 00       	call   6e20 <_ZN4core5alloc6layout6Layout5array17h19093e9d9729af45E>
    5e55:	48 89 84 24 78 01 00 	mov    QWORD PTR [rsp+0x178],rax
    5e5c:	00 
    5e5d:	48 89 94 24 80 01 00 	mov    QWORD PTR [rsp+0x180],rdx
    5e64:	00 
    5e65:	48 89 44 24 18       	mov    QWORD PTR [rsp+0x18],rax
    5e6a:	48 89 54 24 10       	mov    QWORD PTR [rsp+0x10],rdx
    5e6f:	48 8d bc 24 10 01 00 	lea    rdi,[rsp+0x110]
    5e76:	00 
    5e77:	48 8b 74 24 70       	mov    rsi,QWORD PTR [rsp+0x70]
    5e7c:	e8 2f fc ff ff       	call   5ab0 <_ZN5alloc7raw_vec19RawVec$LT$T$C$A$GT$14current_memory17h52cdded12bdbc807E>
    5e81:	48 8b 44 24 70       	mov    rax,QWORD PTR [rsp+0x70]
    5e86:	48 8d bc 24 f8 00 00 	lea    rdi,[rsp+0xf8]
    5e8d:	00 
    5e8e:	48 8b 74 24 18       	mov    rsi,QWORD PTR [rsp+0x18]
    5e93:	48 8b 54 24 10       	mov    rdx,QWORD PTR [rsp+0x10]
    5e98:	48 8d 8c 24 10 01 00 	lea    rcx,[rsp+0x110]
    5e9f:	00 
    5ea0:	49 89 c0             	mov    r8,rax
    5ea3:	e8 b8 f4 ff ff       	call   5360 <_ZN5alloc7raw_vec11finish_grow17h95dcb0cc86460405E>
    5ea8:	48 8d bc 24 e0 00 00 	lea    rdi,[rsp+0xe0]
    5eaf:	00 
    5eb0:	48 8d b4 24 f8 00 00 	lea    rsi,[rsp+0xf8]
    5eb7:	00 
    5eb8:	e8 43 14 00 00       	call   7300 <_ZN73_$LT$core..result..Result$LT$T$C$E$GT$$u20$as$u20$core..ops..try..Try$GT$11into_result17hcb328854c24c6ccdE>
    5ebd:	48 8b 84 24 e0 00 00 	mov    rax,QWORD PTR [rsp+0xe0]
    5ec4:	00 
    5ec5:	48 85 c0             	test   rax,rax
    5ec8:	74 04                	je     5ece <_ZN5alloc7raw_vec19RawVec$LT$T$C$A$GT$14grow_amortized17he245d0ff4734ead3E+0x2ae>
    5eca:	eb 00                	jmp    5ecc <_ZN5alloc7raw_vec19RawVec$LT$T$C$A$GT$14grow_amortized17he245d0ff4734ead3E+0x2ac>
    5ecc:	eb 44                	jmp    5f12 <_ZN5alloc7raw_vec19RawVec$LT$T$C$A$GT$14grow_amortized17he245d0ff4734ead3E+0x2f2>
    5ece:	48 8b 84 24 e8 00 00 	mov    rax,QWORD PTR [rsp+0xe8]
    5ed5:	00 
    5ed6:	48 8b 8c 24 f0 00 00 	mov    rcx,QWORD PTR [rsp+0xf0]
    5edd:	00 
    5ede:	48 89 84 24 98 01 00 	mov    QWORD PTR [rsp+0x198],rax
    5ee5:	00 
    5ee6:	48 89 8c 24 a0 01 00 	mov    QWORD PTR [rsp+0x1a0],rcx
    5eed:	00 
    5eee:	48 89 84 24 a8 01 00 	mov    QWORD PTR [rsp+0x1a8],rax
    5ef5:	00 
    5ef6:	48 89 8c 24 b0 01 00 	mov    QWORD PTR [rsp+0x1b0],rcx
    5efd:	00 
    5efe:	48 8b 7c 24 70       	mov    rdi,QWORD PTR [rsp+0x70]
    5f03:	48 89 c6             	mov    rsi,rax
    5f06:	48 89 ca             	mov    rdx,rcx
    5f09:	e8 e2 01 00 00       	call   60f0 <_ZN5alloc7raw_vec19RawVec$LT$T$C$A$GT$7set_ptr17h67854120da17a9c8E>
    5f0e:	eb 4e                	jmp    5f5e <_ZN5alloc7raw_vec19RawVec$LT$T$C$A$GT$14grow_amortized17he245d0ff4734ead3E+0x33e>
    5f10:	0f 0b                	ud2    
    5f12:	48 8b 84 24 e8 00 00 	mov    rax,QWORD PTR [rsp+0xe8]
    5f19:	00 
    5f1a:	48 8b 8c 24 f0 00 00 	mov    rcx,QWORD PTR [rsp+0xf0]
    5f21:	00 
    5f22:	48 89 84 24 88 01 00 	mov    QWORD PTR [rsp+0x188],rax
    5f29:	00 
    5f2a:	48 89 8c 24 90 01 00 	mov    QWORD PTR [rsp+0x190],rcx
    5f31:	00 
    5f32:	48 89 c7             	mov    rdi,rax
    5f35:	48 89 ce             	mov    rsi,rcx
    5f38:	e8 73 27 00 00       	call   86b0 <_ZN50_$LT$T$u20$as$u20$core..convert..From$LT$T$GT$$GT$4from17hf1f74836f744845fE>
    5f3d:	48 89 44 24 08       	mov    QWORD PTR [rsp+0x8],rax
    5f42:	48 89 14 24          	mov    QWORD PTR [rsp],rdx
    5f46:	48 8b 7c 24 68       	mov    rdi,QWORD PTR [rsp+0x68]
    5f4b:	48 8b 74 24 08       	mov    rsi,QWORD PTR [rsp+0x8]
    5f50:	48 8b 14 24          	mov    rdx,QWORD PTR [rsp]
    5f54:	e8 77 12 00 00       	call   71d0 <_ZN73_$LT$core..result..Result$LT$T$C$E$GT$$u20$as$u20$core..ops..try..Try$GT$10from_error17h2349d59ce61c0086E>
    5f59:	e9 64 fe ff ff       	jmp    5dc2 <_ZN5alloc7raw_vec19RawVec$LT$T$C$A$GT$14grow_amortized17he245d0ff4734ead3E+0x1a2>
    5f5e:	48 8b 44 24 68       	mov    rax,QWORD PTR [rsp+0x68]
    5f63:	48 c7 00 00 00 00 00 	mov    QWORD PTR [rax],0x0
    5f6a:	e9 61 fd ff ff       	jmp    5cd0 <_ZN5alloc7raw_vec19RawVec$LT$T$C$A$GT$14grow_amortized17he245d0ff4734ead3E+0xb0>
    5f6f:	90                   	nop

0000000000005f70 <_ZN5alloc7raw_vec19RawVec$LT$T$C$A$GT$16with_capacity_in17h66e56df3670f82a7E>:
    5f70:	48 83 ec 28          	sub    rsp,0x28
    5f74:	48 89 7c 24 18       	mov    QWORD PTR [rsp+0x18],rdi
    5f79:	c6 44 24 17 00       	mov    BYTE PTR [rsp+0x17],0x0
    5f7e:	8a 44 24 17          	mov    al,BYTE PTR [rsp+0x17]
    5f82:	24 01                	and    al,0x1
    5f84:	0f b6 f0             	movzx  esi,al
    5f87:	e8 c4 f6 ff ff       	call   5650 <_ZN5alloc7raw_vec19RawVec$LT$T$C$A$GT$11allocate_in17hb36be2ddf9fbecd8E>
    5f8c:	48 89 44 24 08       	mov    QWORD PTR [rsp+0x8],rax
    5f91:	48 89 14 24          	mov    QWORD PTR [rsp],rdx
    5f95:	48 8b 44 24 08       	mov    rax,QWORD PTR [rsp+0x8]
    5f9a:	48 8b 14 24          	mov    rdx,QWORD PTR [rsp]
    5f9e:	48 83 c4 28          	add    rsp,0x28
    5fa2:	c3                   	ret    
    5fa3:	66 2e 0f 1f 84 00 00 	nop    WORD PTR cs:[rax+rax*1+0x0]
    5faa:	00 00 00 
    5fad:	0f 1f 00             	nop    DWORD PTR [rax]

0000000000005fb0 <_ZN5alloc7raw_vec19RawVec$LT$T$C$A$GT$19capacity_from_bytes17ha1610229a15b9b76E>:
    5fb0:	48 83 ec 28          	sub    rsp,0x28
    5fb4:	48 89 7c 24 18       	mov    QWORD PTR [rsp+0x18],rdi
    5fb9:	48 c7 44 24 20 01 00 	mov    QWORD PTR [rsp+0x20],0x1
    5fc0:	00 00 
    5fc2:	48 8b 44 24 20       	mov    rax,QWORD PTR [rsp+0x20]
    5fc7:	48 89 7c 24 10       	mov    QWORD PTR [rsp+0x10],rdi
    5fcc:	48 89 44 24 08       	mov    QWORD PTR [rsp+0x8],rax
    5fd1:	48 8b 44 24 08       	mov    rax,QWORD PTR [rsp+0x8]
    5fd6:	48 83 f8 00          	cmp    rax,0x0
    5fda:	0f 94 c1             	sete   cl
    5fdd:	f6 c1 01             	test   cl,0x1
    5fe0:	75 16                	jne    5ff8 <_ZN5alloc7raw_vec19RawVec$LT$T$C$A$GT$19capacity_from_bytes17ha1610229a15b9b76E+0x48>
    5fe2:	48 8b 44 24 10       	mov    rax,QWORD PTR [rsp+0x10]
    5fe7:	31 c9                	xor    ecx,ecx
    5fe9:	89 ca                	mov    edx,ecx
    5feb:	48 8b 74 24 08       	mov    rsi,QWORD PTR [rsp+0x8]
    5ff0:	48 f7 f6             	div    rsi
    5ff3:	48 83 c4 28          	add    rsp,0x28
    5ff7:	c3                   	ret    
    5ff8:	48 8d 3d 81 30 03 00 	lea    rdi,[rip+0x33081]        # 39080 <str.0>
    5fff:	48 8d 15 92 16 04 00 	lea    rdx,[rip+0x41692]        # 47698 <__do_global_dtors_aux_fini_array_entry+0x8>
    6006:	48 8d 05 53 cf 02 00 	lea    rax,[rip+0x2cf53]        # 32f60 <_ZN4core9panicking5panic17h184ede6dd822ffb4E>
    600d:	be 19 00 00 00       	mov    esi,0x19
    6012:	ff d0                	call   rax
    6014:	0f 0b                	ud2    
    6016:	66 2e 0f 1f 84 00 00 	nop    WORD PTR cs:[rax+rax*1+0x0]
    601d:	00 00 00 

0000000000006020 <_ZN5alloc7raw_vec19RawVec$LT$T$C$A$GT$3ptr17head1549401552cbfE>:
    6020:	48 83 ec 18          	sub    rsp,0x18
    6024:	48 89 7c 24 10       	mov    QWORD PTR [rsp+0x10],rdi
    6029:	48 8b 3f             	mov    rdi,QWORD PTR [rdi]
    602c:	e8 2f 16 00 00       	call   7660 <_ZN4core3ptr6unique15Unique$LT$T$GT$6as_ptr17h64d4f7c77940aa81E>
    6031:	48 89 44 24 08       	mov    QWORD PTR [rsp+0x8],rax
    6036:	48 8b 44 24 08       	mov    rax,QWORD PTR [rsp+0x8]
    603b:	48 83 c4 18          	add    rsp,0x18
    603f:	c3                   	ret    

0000000000006040 <_ZN5alloc7raw_vec19RawVec$LT$T$C$A$GT$6new_in17h010653467e9a3df1E>:
    6040:	48 83 ec 38          	sub    rsp,0x38
    6044:	e8 27 16 00 00       	call   7670 <_ZN4core3ptr6unique15Unique$LT$T$GT$8dangling17hf0ba2d8941e73380E>
    6049:	48 89 44 24 08       	mov    QWORD PTR [rsp+0x8],rax
    604e:	eb 0c                	jmp    605c <_ZN5alloc7raw_vec19RawVec$LT$T$C$A$GT$6new_in17h010653467e9a3df1E+0x1c>
    6050:	48 8b 7c 24 28       	mov    rdi,QWORD PTR [rsp+0x28]
    6055:	e8 f6 ef ff ff       	call   5050 <_Unwind_Resume@plt>
    605a:	0f 0b                	ud2    
    605c:	48 8b 44 24 08       	mov    rax,QWORD PTR [rsp+0x8]
    6061:	48 89 44 24 10       	mov    QWORD PTR [rsp+0x10],rax
    6066:	48 c7 44 24 18 00 00 	mov    QWORD PTR [rsp+0x18],0x0
    606d:	00 00 
    606f:	48 8b 44 24 10       	mov    rax,QWORD PTR [rsp+0x10]
    6074:	48 8b 54 24 18       	mov    rdx,QWORD PTR [rsp+0x18]
    6079:	48 83 c4 38          	add    rsp,0x38
    607d:	c3                   	ret    
    607e:	eb d0                	jmp    6050 <_ZN5alloc7raw_vec19RawVec$LT$T$C$A$GT$6new_in17h010653467e9a3df1E+0x10>
    6080:	48 89 44 24 28       	mov    QWORD PTR [rsp+0x28],rax
    6085:	89 54 24 30          	mov    DWORD PTR [rsp+0x30],edx
    6089:	eb f3                	jmp    607e <_ZN5alloc7raw_vec19RawVec$LT$T$C$A$GT$6new_in17h010653467e9a3df1E+0x3e>
    608b:	0f 1f 44 00 00       	nop    DWORD PTR [rax+rax*1+0x0]

0000000000006090 <_ZN5alloc7raw_vec19RawVec$LT$T$C$A$GT$7reserve17h4746fabc8266aa57E>:
    6090:	48 83 ec 48          	sub    rsp,0x48
    6094:	48 89 7c 24 30       	mov    QWORD PTR [rsp+0x30],rdi
    6099:	48 89 74 24 38       	mov    QWORD PTR [rsp+0x38],rsi
    609e:	48 89 54 24 40       	mov    QWORD PTR [rsp+0x40],rdx
    60a3:	48 8d 44 24 18       	lea    rax,[rsp+0x18]
    60a8:	48 89 7c 24 10       	mov    QWORD PTR [rsp+0x10],rdi
    60ad:	48 89 c7             	mov    rdi,rax
    60b0:	48 8b 44 24 10       	mov    rax,QWORD PTR [rsp+0x10]
    60b5:	48 89 74 24 08       	mov    QWORD PTR [rsp+0x8],rsi
    60ba:	48 89 c6             	mov    rsi,rax
    60bd:	48 8b 4c 24 08       	mov    rcx,QWORD PTR [rsp+0x8]
    60c2:	48 89 14 24          	mov    QWORD PTR [rsp],rdx
    60c6:	48 89 ca             	mov    rdx,rcx
    60c9:	48 8b 0c 24          	mov    rcx,QWORD PTR [rsp]
    60cd:	e8 ce f8 ff ff       	call   59a0 <_ZN5alloc7raw_vec19RawVec$LT$T$C$A$GT$11try_reserve17hccfa233ec646daaaE>
    60d2:	48 8d 7c 24 18       	lea    rdi,[rsp+0x18]
    60d7:	e8 e4 01 00 00       	call   62c0 <_ZN5alloc7raw_vec14handle_reserve17h4b7d7777d5ca23cbE>
    60dc:	48 83 c4 48          	add    rsp,0x48
    60e0:	c3                   	ret    
    60e1:	66 2e 0f 1f 84 00 00 	nop    WORD PTR cs:[rax+rax*1+0x0]
    60e8:	00 00 00 
    60eb:	0f 1f 44 00 00       	nop    DWORD PTR [rax+rax*1+0x0]

00000000000060f0 <_ZN5alloc7raw_vec19RawVec$LT$T$C$A$GT$7set_ptr17h67854120da17a9c8E>:
    60f0:	48 83 ec 58          	sub    rsp,0x58
    60f4:	48 89 7c 24 40       	mov    QWORD PTR [rsp+0x40],rdi
    60f9:	48 89 74 24 48       	mov    QWORD PTR [rsp+0x48],rsi
    60fe:	48 89 54 24 50       	mov    QWORD PTR [rsp+0x50],rdx
    6103:	48 89 7c 24 38       	mov    QWORD PTR [rsp+0x38],rdi
    6108:	48 89 f7             	mov    rdi,rsi
    610b:	48 89 74 24 30       	mov    QWORD PTR [rsp+0x30],rsi
    6110:	48 89 d6             	mov    rsi,rdx
    6113:	48 89 54 24 28       	mov    QWORD PTR [rsp+0x28],rdx
    6118:	e8 f3 12 00 00       	call   7410 <_ZN4core3ptr8non_null16NonNull$LT$T$GT$4cast17h0902af581e7d28cfE>
    611d:	48 89 44 24 20       	mov    QWORD PTR [rsp+0x20],rax
    6122:	48 8b 7c 24 20       	mov    rdi,QWORD PTR [rsp+0x20]
    6127:	e8 44 13 00 00       	call   7470 <_ZN4core3ptr8non_null16NonNull$LT$T$GT$6as_ptr17h6cc5f652a3c8a2aeE>
    612c:	48 89 44 24 18       	mov    QWORD PTR [rsp+0x18],rax
    6131:	48 8b 7c 24 18       	mov    rdi,QWORD PTR [rsp+0x18]
    6136:	e8 d5 14 00 00       	call   7610 <_ZN4core3ptr6unique15Unique$LT$T$GT$13new_unchecked17h43770b75d2c7d070E>
    613b:	48 89 44 24 10       	mov    QWORD PTR [rsp+0x10],rax
    6140:	48 8b 44 24 38       	mov    rax,QWORD PTR [rsp+0x38]
    6145:	48 8b 4c 24 10       	mov    rcx,QWORD PTR [rsp+0x10]
    614a:	48 89 08             	mov    QWORD PTR [rax],rcx
    614d:	48 8b 7c 24 30       	mov    rdi,QWORD PTR [rsp+0x30]
    6152:	48 8b 74 24 28       	mov    rsi,QWORD PTR [rsp+0x28]
    6157:	e8 14 14 00 00       	call   7570 <_ZN4core3ptr8non_null26NonNull$LT$$u5b$T$u5d$$GT$3len17h5f44284ef81e2d82E>
    615c:	48 89 44 24 08       	mov    QWORD PTR [rsp+0x8],rax
    6161:	48 8b 7c 24 08       	mov    rdi,QWORD PTR [rsp+0x8]
    6166:	e8 45 fe ff ff       	call   5fb0 <_ZN5alloc7raw_vec19RawVec$LT$T$C$A$GT$19capacity_from_bytes17ha1610229a15b9b76E>
    616b:	48 89 04 24          	mov    QWORD PTR [rsp],rax
    616f:	48 8b 44 24 38       	mov    rax,QWORD PTR [rsp+0x38]
    6174:	48 8b 0c 24          	mov    rcx,QWORD PTR [rsp]
    6178:	48 89 48 08          	mov    QWORD PTR [rax+0x8],rcx
    617c:	48 83 c4 58          	add    rsp,0x58
    6180:	c3                   	ret    
    6181:	66 2e 0f 1f 84 00 00 	nop    WORD PTR cs:[rax+rax*1+0x0]
    6188:	00 00 00 
    618b:	0f 1f 44 00 00       	nop    DWORD PTR [rax+rax*1+0x0]

0000000000006190 <_ZN4core5slice3raw14from_raw_parts17h0458ccb9c5b0c529E>:
    6190:	48 83 ec 28          	sub    rsp,0x28
    6194:	48 89 7c 24 18       	mov    QWORD PTR [rsp+0x18],rdi
    6199:	48 89 74 24 20       	mov    QWORD PTR [rsp+0x20],rsi
    619e:	e8 3d f1 ff ff       	call   52e0 <_ZN4core3ptr20slice_from_raw_parts17hfeaaff483c22c786E>
    61a3:	48 89 44 24 10       	mov    QWORD PTR [rsp+0x10],rax
    61a8:	48 89 54 24 08       	mov    QWORD PTR [rsp+0x8],rdx
    61ad:	48 8b 44 24 10       	mov    rax,QWORD PTR [rsp+0x10]
    61b2:	48 8b 54 24 08       	mov    rdx,QWORD PTR [rsp+0x8]
    61b7:	48 83 c4 28          	add    rsp,0x28
    61bb:	c3                   	ret    
    61bc:	0f 1f 40 00          	nop    DWORD PTR [rax+0x0]

00000000000061c0 <_ZN3std2rt10lang_start17h7d5b4ea17e7fd5daE>:
    61c0:	48 83 ec 38          	sub    rsp,0x38
    61c4:	48 8d 05 e5 14 04 00 	lea    rax,[rip+0x414e5]        # 476b0 <__do_global_dtors_aux_fini_array_entry+0x20>
    61cb:	48 89 7c 24 20       	mov    QWORD PTR [rsp+0x20],rdi
    61d0:	48 89 74 24 28       	mov    QWORD PTR [rsp+0x28],rsi
    61d5:	48 89 54 24 30       	mov    QWORD PTR [rsp+0x30],rdx
    61da:	48 89 7c 24 18       	mov    QWORD PTR [rsp+0x18],rdi
    61df:	48 8d 4c 24 18       	lea    rcx,[rsp+0x18]
    61e4:	48 89 cf             	mov    rdi,rcx
    61e7:	48 89 74 24 10       	mov    QWORD PTR [rsp+0x10],rsi
    61ec:	48 89 c6             	mov    rsi,rax
    61ef:	48 8b 44 24 10       	mov    rax,QWORD PTR [rsp+0x10]
    61f4:	48 89 54 24 08       	mov    QWORD PTR [rsp+0x8],rdx
    61f9:	48 89 c2             	mov    rdx,rax
    61fc:	48 8b 4c 24 08       	mov    rcx,QWORD PTR [rsp+0x8]
    6201:	ff 15 c9 3b 04 00    	call   QWORD PTR [rip+0x43bc9]        # 49dd0 <_GLOBAL_OFFSET_TABLE_+0x410>
    6207:	48 89 04 24          	mov    QWORD PTR [rsp],rax
    620b:	48 8b 04 24          	mov    rax,QWORD PTR [rsp]
    620f:	48 83 c4 38          	add    rsp,0x38
    6213:	c3                   	ret    
    6214:	66 2e 0f 1f 84 00 00 	nop    WORD PTR cs:[rax+rax*1+0x0]
    621b:	00 00 00 
    621e:	66 90                	xchg   ax,ax

0000000000006220 <_ZN3std2rt10lang_start28_$u7b$$u7b$closure$u7d$$u7d$17h328e8dcfdaf1b913E>:
    6220:	48 83 ec 18          	sub    rsp,0x18
    6224:	48 89 7c 24 10       	mov    QWORD PTR [rsp+0x10],rdi
    6229:	48 8b 3f             	mov    rdi,QWORD PTR [rdi]
    622c:	e8 3f 24 00 00       	call   8670 <_ZN3std10sys_common9backtrace28__rust_begin_short_backtrace17h701b7a1b0f0e726eE>
    6231:	e8 0a 0b 00 00       	call   6d40 <_ZN54_$LT$$LP$$RP$$u20$as$u20$std..process..Termination$GT$6report17h51a1df20bb6492d6E>
    6236:	89 44 24 0c          	mov    DWORD PTR [rsp+0xc],eax
    623a:	8b 44 24 0c          	mov    eax,DWORD PTR [rsp+0xc]
    623e:	48 83 c4 18          	add    rsp,0x18
    6242:	c3                   	ret    
    6243:	66 2e 0f 1f 84 00 00 	nop    WORD PTR cs:[rax+rax*1+0x0]
    624a:	00 00 00 
    624d:	0f 1f 00             	nop    DWORD PTR [rax]

0000000000006250 <_ZN50_$LT$T$u20$as$u20$core..convert..From$LT$T$GT$$GT$4from17he80ddb3e8ac713d9E>:
    6250:	50                   	push   rax
    6251:	58                   	pop    rax
    6252:	c3                   	ret    
    6253:	66 2e 0f 1f 84 00 00 	nop    WORD PTR cs:[rax+rax*1+0x0]
    625a:	00 00 00 
    625d:	0f 1f 00             	nop    DWORD PTR [rax]

0000000000006260 <_ZN5alloc7raw_vec11alloc_guard17hce84c63a38f505b3E>:
    6260:	48 83 ec 28          	sub    rsp,0x28
    6264:	48 89 f8             	mov    rax,rdi
    6267:	31 c9                	xor    ecx,ecx
    6269:	48 89 74 24 20       	mov    QWORD PTR [rsp+0x20],rsi
    626e:	f6 c1 01             	test   cl,0x1
    6271:	48 89 7c 24 08       	mov    QWORD PTR [rsp+0x8],rdi
    6276:	48 89 04 24          	mov    QWORD PTR [rsp],rax
    627a:	75 0e                	jne    628a <_ZN5alloc7raw_vec11alloc_guard17hce84c63a38f505b3E+0x2a>
    627c:	48 8b 44 24 08       	mov    rax,QWORD PTR [rsp+0x8]
    6281:	48 c7 00 00 00 00 00 	mov    QWORD PTR [rax],0x0
    6288:	eb 27                	jmp    62b1 <_ZN5alloc7raw_vec11alloc_guard17hce84c63a38f505b3E+0x51>
    628a:	48 c7 44 24 18 00 00 	mov    QWORD PTR [rsp+0x18],0x0
    6291:	00 00 
    6293:	48 8b 44 24 10       	mov    rax,QWORD PTR [rsp+0x10]
    6298:	48 8b 4c 24 18       	mov    rcx,QWORD PTR [rsp+0x18]
    629d:	48 8b 54 24 08       	mov    rdx,QWORD PTR [rsp+0x8]
    62a2:	48 89 42 08          	mov    QWORD PTR [rdx+0x8],rax
    62a6:	48 89 4a 10          	mov    QWORD PTR [rdx+0x10],rcx
    62aa:	48 c7 02 01 00 00 00 	mov    QWORD PTR [rdx],0x1
    62b1:	48 8b 04 24          	mov    rax,QWORD PTR [rsp]
    62b5:	48 83 c4 28          	add    rsp,0x28
    62b9:	c3                   	ret    
    62ba:	66 0f 1f 44 00 00    	nop    WORD PTR [rax+rax*1+0x0]

00000000000062c0 <_ZN5alloc7raw_vec14handle_reserve17h4b7d7777d5ca23cbE>:
    62c0:	48 83 ec 28          	sub    rsp,0x28
    62c4:	48 8b 07             	mov    rax,QWORD PTR [rdi]
    62c7:	48 85 c0             	test   rax,rax
    62ca:	48 89 7c 24 10       	mov    QWORD PTR [rsp+0x10],rdi
    62cf:	74 04                	je     62d5 <_ZN5alloc7raw_vec14handle_reserve17h4b7d7777d5ca23cbE+0x15>
    62d1:	eb 00                	jmp    62d3 <_ZN5alloc7raw_vec14handle_reserve17h4b7d7777d5ca23cbE+0x13>
    62d3:	eb 05                	jmp    62da <_ZN5alloc7raw_vec14handle_reserve17h4b7d7777d5ca23cbE+0x1a>
    62d5:	48 83 c4 28          	add    rsp,0x28
    62d9:	c3                   	ret    
    62da:	48 8b 44 24 10       	mov    rax,QWORD PTR [rsp+0x10]
    62df:	48 8b 48 10          	mov    rcx,QWORD PTR [rax+0x10]
    62e3:	48 85 c9             	test   rcx,rcx
    62e6:	0f 95 c2             	setne  dl
    62e9:	0f b6 f2             	movzx  esi,dl
    62ec:	89 f1                	mov    ecx,esi
    62ee:	74 06                	je     62f6 <_ZN5alloc7raw_vec14handle_reserve17h4b7d7777d5ca23cbE+0x36>
    62f0:	eb 00                	jmp    62f2 <_ZN5alloc7raw_vec14handle_reserve17h4b7d7777d5ca23cbE+0x32>
    62f2:	eb 0d                	jmp    6301 <_ZN5alloc7raw_vec14handle_reserve17h4b7d7777d5ca23cbE+0x41>
    62f4:	0f 0b                	ud2    
    62f6:	48 8d 05 f3 c2 02 00 	lea    rax,[rip+0x2c2f3]        # 325f0 <_ZN5alloc7raw_vec17capacity_overflow17h35f3dcdf1e879e98E>
    62fd:	ff d0                	call   rax
    62ff:	0f 0b                	ud2    
    6301:	48 8b 44 24 10       	mov    rax,QWORD PTR [rsp+0x10]
    6306:	48 8b 48 08          	mov    rcx,QWORD PTR [rax+0x8]
    630a:	48 8b 50 10          	mov    rdx,QWORD PTR [rax+0x10]
    630e:	48 89 4c 24 18       	mov    QWORD PTR [rsp+0x18],rcx
    6313:	48 89 54 24 20       	mov    QWORD PTR [rsp+0x20],rdx
    6318:	48 8d 35 51 c2 02 00 	lea    rsi,[rip+0x2c251]        # 32570 <_ZN5alloc5alloc18handle_alloc_error17hb12bf6f6b6f1927aE>
    631f:	48 89 cf             	mov    rdi,rcx
    6322:	48 89 74 24 08       	mov    QWORD PTR [rsp+0x8],rsi
    6327:	48 89 d6             	mov    rsi,rdx
    632a:	48 8b 4c 24 08       	mov    rcx,QWORD PTR [rsp+0x8]
    632f:	ff d1                	call   rcx
    6331:	0f 0b                	ud2    
    6333:	66 2e 0f 1f 84 00 00 	nop    WORD PTR cs:[rax+rax*1+0x0]
    633a:	00 00 00 
    633d:	0f 1f 00             	nop    DWORD PTR [rax]

0000000000006340 <_ZN5alloc3str56_$LT$impl$u20$alloc..borrow..ToOwned$u20$for$u20$str$GT$8to_owned17h3b1f163bcd6c2136E>:
    6340:	48 83 ec 68          	sub    rsp,0x68
    6344:	48 89 f8             	mov    rax,rdi
    6347:	48 89 74 24 38       	mov    QWORD PTR [rsp+0x38],rsi
    634c:	48 89 54 24 40       	mov    QWORD PTR [rsp+0x40],rdx
    6351:	48 89 74 24 48       	mov    QWORD PTR [rsp+0x48],rsi
    6356:	48 89 54 24 50       	mov    QWORD PTR [rsp+0x50],rdx
    635b:	48 89 74 24 58       	mov    QWORD PTR [rsp+0x58],rsi
    6360:	48 89 54 24 60       	mov    QWORD PTR [rsp+0x60],rdx
    6365:	48 8b 74 24 58       	mov    rsi,QWORD PTR [rsp+0x58]
    636a:	48 8b 54 24 60       	mov    rdx,QWORD PTR [rsp+0x60]
    636f:	48 89 7c 24 18       	mov    QWORD PTR [rsp+0x18],rdi
    6374:	48 89 44 24 10       	mov    QWORD PTR [rsp+0x10],rax
    6379:	48 89 74 24 08       	mov    QWORD PTR [rsp+0x8],rsi
    637e:	48 89 14 24          	mov    QWORD PTR [rsp],rdx
    6382:	48 8d 7c 24 20       	lea    rdi,[rsp+0x20]
    6387:	48 8b 74 24 08       	mov    rsi,QWORD PTR [rsp+0x8]
    638c:	48 8b 14 24          	mov    rdx,QWORD PTR [rsp]
    6390:	e8 4b 12 00 00       	call   75e0 <_ZN5alloc5slice64_$LT$impl$u20$alloc..borrow..ToOwned$u20$for$u20$$u5b$T$u5d$$GT$8to_owned17he2fe3c716f66f54cE>
    6395:	48 8b 7c 24 18       	mov    rdi,QWORD PTR [rsp+0x18]
    639a:	48 8d 74 24 20       	lea    rsi,[rsp+0x20]
    639f:	e8 7c 23 00 00       	call   8720 <_ZN5alloc6string6String19from_utf8_unchecked17hf1fdff2a5a23af67E>
    63a4:	48 8b 44 24 10       	mov    rax,QWORD PTR [rsp+0x10]
    63a9:	48 83 c4 68          	add    rsp,0x68
    63ad:	c3                   	ret    
    63ae:	66 90                	xchg   ax,ax

00000000000063b0 <_ZN3std3sys4unix7process14process_common8ExitCode6as_i3217h11a2f6ffdc19e8e5E>:
    63b0:	50                   	push   rax
    63b1:	48 89 3c 24          	mov    QWORD PTR [rsp],rdi
    63b5:	0f b6 07             	movzx  eax,BYTE PTR [rdi]
    63b8:	59                   	pop    rcx
    63b9:	c3                   	ret    
    63ba:	66 0f 1f 44 00 00    	nop    WORD PTR [rax+rax*1+0x0]

00000000000063c0 <_ZN4core10intrinsics11write_bytes17h80537928c382082dE>:
    63c0:	48 83 ec 18          	sub    rsp,0x18
    63c4:	48 89 3c 24          	mov    QWORD PTR [rsp],rdi
    63c8:	40 88 74 24 0f       	mov    BYTE PTR [rsp+0xf],sil
    63cd:	48 89 54 24 10       	mov    QWORD PTR [rsp+0x10],rdx
    63d2:	48 c1 e2 00          	shl    rdx,0x0
    63d6:	40 0f b6 f6          	movzx  esi,sil
    63da:	e8 81 ec ff ff       	call   5060 <memset@plt>
    63df:	48 83 c4 18          	add    rsp,0x18
    63e3:	c3                   	ret    
    63e4:	66 2e 0f 1f 84 00 00 	nop    WORD PTR cs:[rax+rax*1+0x0]
    63eb:	00 00 00 
    63ee:	66 90                	xchg   ax,ax

00000000000063f0 <_ZN4core10intrinsics19copy_nonoverlapping17h8595eb14b6e6c582E>:
    63f0:	48 83 ec 28          	sub    rsp,0x28
    63f4:	48 89 7c 24 10       	mov    QWORD PTR [rsp+0x10],rdi
    63f9:	48 89 74 24 18       	mov    QWORD PTR [rsp+0x18],rsi
    63fe:	48 89 54 24 20       	mov    QWORD PTR [rsp+0x20],rdx
    6403:	48 c1 e2 00          	shl    rdx,0x0
    6407:	48 89 7c 24 08       	mov    QWORD PTR [rsp+0x8],rdi
    640c:	48 89 f7             	mov    rdi,rsi
    640f:	48 8b 74 24 08       	mov    rsi,QWORD PTR [rsp+0x8]
    6414:	e8 4f ec ff ff       	call   5068 <memcpy@plt>
    6419:	48 83 c4 28          	add    rsp,0x28
    641d:	c3                   	ret    
    641e:	66 90                	xchg   ax,ax

0000000000006420 <_ZN4core3fmt9Arguments6new_v117hd9566fa5f5ba3b86E>:
    6420:	48 83 ec 30          	sub    rsp,0x30
    6424:	48 89 f8             	mov    rax,rdi
    6427:	48 89 74 24 10       	mov    QWORD PTR [rsp+0x10],rsi
    642c:	48 89 54 24 18       	mov    QWORD PTR [rsp+0x18],rdx
    6431:	48 89 4c 24 20       	mov    QWORD PTR [rsp+0x20],rcx
    6436:	4c 89 44 24 28       	mov    QWORD PTR [rsp+0x28],r8
    643b:	48 c7 04 24 00 00 00 	mov    QWORD PTR [rsp],0x0
    6442:	00 
    6443:	48 89 37             	mov    QWORD PTR [rdi],rsi
    6446:	48 89 57 08          	mov    QWORD PTR [rdi+0x8],rdx
    644a:	48 8b 14 24          	mov    rdx,QWORD PTR [rsp]
    644e:	48 8b 74 24 08       	mov    rsi,QWORD PTR [rsp+0x8]
    6453:	48 89 57 10          	mov    QWORD PTR [rdi+0x10],rdx
    6457:	48 89 77 18          	mov    QWORD PTR [rdi+0x18],rsi
    645b:	48 89 4f 20          	mov    QWORD PTR [rdi+0x20],rcx
    645f:	4c 89 47 28          	mov    QWORD PTR [rdi+0x28],r8
    6463:	48 83 c4 30          	add    rsp,0x30
    6467:	c3                   	ret    
    6468:	0f 1f 84 00 00 00 00 	nop    DWORD PTR [rax+rax*1+0x0]
    646f:	00 

0000000000006470 <_ZN5alloc5alloc12alloc_zeroed17h050fe46d4cf749b3E>:
    6470:	48 83 ec 28          	sub    rsp,0x28
    6474:	48 89 7c 24 18       	mov    QWORD PTR [rsp+0x18],rdi
    6479:	48 89 74 24 20       	mov    QWORD PTR [rsp+0x20],rsi
    647e:	48 8d 7c 24 18       	lea    rdi,[rsp+0x18]
    6483:	e8 78 26 00 00       	call   8b00 <_ZN4core5alloc6layout6Layout4size17h1ca534bde82f7d8fE>
    6488:	48 89 44 24 10       	mov    QWORD PTR [rsp+0x10],rax
    648d:	48 8d 7c 24 18       	lea    rdi,[rsp+0x18]
    6492:	e8 79 26 00 00       	call   8b10 <_ZN4core5alloc6layout6Layout5align17h4d20852f32a8a9fdE>
    6497:	48 89 44 24 08       	mov    QWORD PTR [rsp+0x8],rax
    649c:	48 8b 7c 24 10       	mov    rdi,QWORD PTR [rsp+0x10]
    64a1:	48 8b 74 24 08       	mov    rsi,QWORD PTR [rsp+0x8]
    64a6:	ff 15 a4 37 04 00    	call   QWORD PTR [rip+0x437a4]        # 49c50 <_GLOBAL_OFFSET_TABLE_+0x290>
    64ac:	48 89 04 24          	mov    QWORD PTR [rsp],rax
    64b0:	48 8b 04 24          	mov    rax,QWORD PTR [rsp]
    64b4:	48 83 c4 28          	add    rsp,0x28
    64b8:	c3                   	ret    
    64b9:	0f 1f 80 00 00 00 00 	nop    DWORD PTR [rax+0x0]

00000000000064c0 <_ZN5alloc5alloc5alloc17h85d560faf07f0e9aE>:
    64c0:	48 83 ec 28          	sub    rsp,0x28
    64c4:	48 89 7c 24 18       	mov    QWORD PTR [rsp+0x18],rdi
    64c9:	48 89 74 24 20       	mov    QWORD PTR [rsp+0x20],rsi
    64ce:	48 8d 7c 24 18       	lea    rdi,[rsp+0x18]
    64d3:	e8 28 26 00 00       	call   8b00 <_ZN4core5alloc6layout6Layout4size17h1ca534bde82f7d8fE>
    64d8:	48 89 44 24 10       	mov    QWORD PTR [rsp+0x10],rax
    64dd:	48 8d 7c 24 18       	lea    rdi,[rsp+0x18]
    64e2:	e8 29 26 00 00       	call   8b10 <_ZN4core5alloc6layout6Layout5align17h4d20852f32a8a9fdE>
    64e7:	48 89 44 24 08       	mov    QWORD PTR [rsp+0x8],rax
    64ec:	48 8b 7c 24 10       	mov    rdi,QWORD PTR [rsp+0x10]
    64f1:	48 8b 74 24 08       	mov    rsi,QWORD PTR [rsp+0x8]
    64f6:	ff 15 c4 36 04 00    	call   QWORD PTR [rip+0x436c4]        # 49bc0 <_GLOBAL_OFFSET_TABLE_+0x200>
    64fc:	48 89 04 24          	mov    QWORD PTR [rsp],rax
    6500:	48 8b 04 24          	mov    rax,QWORD PTR [rsp]
    6504:	48 83 c4 28          	add    rsp,0x28
    6508:	c3                   	ret    
    6509:	0f 1f 80 00 00 00 00 	nop    DWORD PTR [rax+0x0]

0000000000006510 <_ZN5alloc5alloc6Global10alloc_impl17hf3f30e76bac3f411E>:
    6510:	48 81 ec b8 00 00 00 	sub    rsp,0xb8
    6517:	48 89 74 24 50       	mov    QWORD PTR [rsp+0x50],rsi
    651c:	48 89 54 24 58       	mov    QWORD PTR [rsp+0x58],rdx
    6521:	48 89 bc 24 88 00 00 	mov    QWORD PTR [rsp+0x88],rdi
    6528:	00 
    6529:	88 c8                	mov    al,cl
    652b:	24 01                	and    al,0x1
    652d:	88 84 24 97 00 00 00 	mov    BYTE PTR [rsp+0x97],al
    6534:	48 8d 7c 24 50       	lea    rdi,[rsp+0x50]
    6539:	88 4c 24 4f          	mov    BYTE PTR [rsp+0x4f],cl
    653d:	e8 be 25 00 00       	call   8b00 <_ZN4core5alloc6layout6Layout4size17h1ca534bde82f7d8fE>
    6542:	48 89 44 24 40       	mov    QWORD PTR [rsp+0x40],rax
    6547:	48 8b 44 24 40       	mov    rax,QWORD PTR [rsp+0x40]
    654c:	48 83 f8 00          	cmp    rax,0x0
    6550:	74 18                	je     656a <_ZN5alloc5alloc6Global10alloc_impl17hf3f30e76bac3f411E+0x5a>
    6552:	48 8b 44 24 40       	mov    rax,QWORD PTR [rsp+0x40]
    6557:	48 89 84 24 a0 00 00 	mov    QWORD PTR [rsp+0xa0],rax
    655e:	00 
    655f:	8a 4c 24 4f          	mov    cl,BYTE PTR [rsp+0x4f]
    6563:	f6 c1 01             	test   cl,0x1
    6566:	75 58                	jne    65c0 <_ZN5alloc5alloc6Global10alloc_impl17hf3f30e76bac3f411E+0xb0>
    6568:	eb 40                	jmp    65aa <_ZN5alloc5alloc6Global10alloc_impl17hf3f30e76bac3f411E+0x9a>
    656a:	48 8d 7c 24 50       	lea    rdi,[rsp+0x50]
    656f:	e8 6c 27 00 00       	call   8ce0 <_ZN4core5alloc6layout6Layout8dangling17h26ba508164a641afE>
    6574:	48 89 44 24 38       	mov    QWORD PTR [rsp+0x38],rax
    6579:	31 c0                	xor    eax,eax
    657b:	89 c6                	mov    esi,eax
    657d:	48 8b 7c 24 38       	mov    rdi,QWORD PTR [rsp+0x38]
    6582:	e8 89 0f 00 00       	call   7510 <_ZN4core3ptr8non_null26NonNull$LT$$u5b$T$u5d$$GT$20slice_from_raw_parts17hef949333e82dfd31E>
    6587:	48 89 44 24 30       	mov    QWORD PTR [rsp+0x30],rax
    658c:	48 89 54 24 28       	mov    QWORD PTR [rsp+0x28],rdx
    6591:	48 8b 44 24 30       	mov    rax,QWORD PTR [rsp+0x30]
    6596:	48 89 44 24 60       	mov    QWORD PTR [rsp+0x60],rax
    659b:	48 8b 4c 24 28       	mov    rcx,QWORD PTR [rsp+0x28]
    65a0:	48 89 4c 24 68       	mov    QWORD PTR [rsp+0x68],rcx
    65a5:	e9 df 00 00 00       	jmp    6689 <_ZN5alloc5alloc6Global10alloc_impl17hf3f30e76bac3f411E+0x179>
    65aa:	48 8b 7c 24 50       	mov    rdi,QWORD PTR [rsp+0x50]
    65af:	48 8b 74 24 58       	mov    rsi,QWORD PTR [rsp+0x58]
    65b4:	e8 07 ff ff ff       	call   64c0 <_ZN5alloc5alloc5alloc17h85d560faf07f0e9aE>
    65b9:	48 89 44 24 70       	mov    QWORD PTR [rsp+0x70],rax
    65be:	eb 16                	jmp    65d6 <_ZN5alloc5alloc6Global10alloc_impl17hf3f30e76bac3f411E+0xc6>
    65c0:	48 8b 7c 24 50       	mov    rdi,QWORD PTR [rsp+0x50]
    65c5:	48 8b 74 24 58       	mov    rsi,QWORD PTR [rsp+0x58]
    65ca:	e8 a1 fe ff ff       	call   6470 <_ZN5alloc5alloc12alloc_zeroed17h050fe46d4cf749b3E>
    65cf:	48 89 44 24 70       	mov    QWORD PTR [rsp+0x70],rax
    65d4:	eb 02                	jmp    65d8 <_ZN5alloc5alloc6Global10alloc_impl17hf3f30e76bac3f411E+0xc8>
    65d6:	eb 00                	jmp    65d8 <_ZN5alloc5alloc6Global10alloc_impl17hf3f30e76bac3f411E+0xc8>
    65d8:	48 8b 7c 24 70       	mov    rdi,QWORD PTR [rsp+0x70]
    65dd:	e8 de 0d 00 00       	call   73c0 <_ZN4core3ptr8non_null16NonNull$LT$T$GT$3new17hd0667006c61e6097E>
    65e2:	48 89 44 24 20       	mov    QWORD PTR [rsp+0x20],rax
    65e7:	48 8b 7c 24 20       	mov    rdi,QWORD PTR [rsp+0x20]
    65ec:	e8 8f ec ff ff       	call   5280 <_ZN4core6option15Option$LT$T$GT$5ok_or17h61dc4c3275c140d2E>
    65f1:	48 89 44 24 18       	mov    QWORD PTR [rsp+0x18],rax
    65f6:	48 8b 7c 24 18       	mov    rdi,QWORD PTR [rsp+0x18]
    65fb:	e8 70 0c 00 00       	call   7270 <_ZN73_$LT$core..result..Result$LT$T$C$E$GT$$u20$as$u20$core..ops..try..Try$GT$11into_result17h0af40dc80752e4f6E>
    6600:	48 89 44 24 78       	mov    QWORD PTR [rsp+0x78],rax
    6605:	48 8b 44 24 78       	mov    rax,QWORD PTR [rsp+0x78]
    660a:	48 85 c0             	test   rax,rax
    660d:	0f 94 c1             	sete   cl
    6610:	0f b6 d1             	movzx  edx,cl
    6613:	89 d0                	mov    eax,edx
    6615:	75 04                	jne    661b <_ZN5alloc5alloc6Global10alloc_impl17hf3f30e76bac3f411E+0x10b>
    6617:	eb 00                	jmp    6619 <_ZN5alloc5alloc6Global10alloc_impl17hf3f30e76bac3f411E+0x109>
    6619:	eb 30                	jmp    664b <_ZN5alloc5alloc6Global10alloc_impl17hf3f30e76bac3f411E+0x13b>
    661b:	48 8b 44 24 78       	mov    rax,QWORD PTR [rsp+0x78]
    6620:	48 89 84 24 a8 00 00 	mov    QWORD PTR [rsp+0xa8],rax
    6627:	00 
    6628:	48 89 84 24 b0 00 00 	mov    QWORD PTR [rsp+0xb0],rax
    662f:	00 
    6630:	48 89 c7             	mov    rdi,rax
    6633:	48 8b 74 24 40       	mov    rsi,QWORD PTR [rsp+0x40]
    6638:	e8 d3 0e 00 00       	call   7510 <_ZN4core3ptr8non_null26NonNull$LT$$u5b$T$u5d$$GT$20slice_from_raw_parts17hef949333e82dfd31E>
    663d:	48 89 44 24 10       	mov    QWORD PTR [rsp+0x10],rax
    6642:	48 89 54 24 08       	mov    QWORD PTR [rsp+0x8],rdx
    6647:	eb 2c                	jmp    6675 <_ZN5alloc5alloc6Global10alloc_impl17hf3f30e76bac3f411E+0x165>
    6649:	0f 0b                	ud2    
    664b:	e8 00 fc ff ff       	call   6250 <_ZN50_$LT$T$u20$as$u20$core..convert..From$LT$T$GT$$GT$4from17he80ddb3e8ac713d9E>
    6650:	eb 12                	jmp    6664 <_ZN5alloc5alloc6Global10alloc_impl17hf3f30e76bac3f411E+0x154>
    6652:	48 8b 44 24 60       	mov    rax,QWORD PTR [rsp+0x60]
    6657:	48 8b 54 24 68       	mov    rdx,QWORD PTR [rsp+0x68]
    665c:	48 81 c4 b8 00 00 00 	add    rsp,0xb8
    6663:	c3                   	ret    
    6664:	e8 a7 0b 00 00       	call   7210 <_ZN73_$LT$core..result..Result$LT$T$C$E$GT$$u20$as$u20$core..ops..try..Try$GT$10from_error17h691a7710dfb0296aE>
    6669:	48 89 54 24 68       	mov    QWORD PTR [rsp+0x68],rdx
    666e:	48 89 44 24 60       	mov    QWORD PTR [rsp+0x60],rax
    6673:	eb dd                	jmp    6652 <_ZN5alloc5alloc6Global10alloc_impl17hf3f30e76bac3f411E+0x142>
    6675:	48 8b 44 24 10       	mov    rax,QWORD PTR [rsp+0x10]
    667a:	48 89 44 24 60       	mov    QWORD PTR [rsp+0x60],rax
    667f:	48 8b 4c 24 08       	mov    rcx,QWORD PTR [rsp+0x8]
    6684:	48 89 4c 24 68       	mov    QWORD PTR [rsp+0x68],rcx
    6689:	eb c7                	jmp    6652 <_ZN5alloc5alloc6Global10alloc_impl17hf3f30e76bac3f411E+0x142>
    668b:	0f 1f 44 00 00       	nop    DWORD PTR [rax+rax*1+0x0]

0000000000006690 <_ZN5alloc5alloc6Global9grow_impl17hb43a6f50f4e02062E>:
    6690:	48 81 ec 98 01 00 00 	sub    rsp,0x198
    6697:	8a 84 24 a0 01 00 00 	mov    al,BYTE PTR [rsp+0x1a0]
    669e:	48 89 94 24 c0 00 00 	mov    QWORD PTR [rsp+0xc0],rdx
    66a5:	00 
    66a6:	48 89 8c 24 c8 00 00 	mov    QWORD PTR [rsp+0xc8],rcx
    66ad:	00 
    66ae:	4c 89 84 24 d0 00 00 	mov    QWORD PTR [rsp+0xd0],r8
    66b5:	00 
    66b6:	4c 89 8c 24 d8 00 00 	mov    QWORD PTR [rsp+0xd8],r9
    66bd:	00 
    66be:	48 89 bc 24 18 01 00 	mov    QWORD PTR [rsp+0x118],rdi
    66c5:	00 
    66c6:	48 89 b4 24 20 01 00 	mov    QWORD PTR [rsp+0x120],rsi
    66cd:	00 
    66ce:	41 88 c2             	mov    r10b,al
    66d1:	41 80 e2 01          	and    r10b,0x1
    66d5:	44 88 94 24 2f 01 00 	mov    BYTE PTR [rsp+0x12f],r10b
    66dc:	00 
    66dd:	48 8d 8c 24 c0 00 00 	lea    rcx,[rsp+0xc0]
    66e4:	00 
    66e5:	48 89 bc 24 b8 00 00 	mov    QWORD PTR [rsp+0xb8],rdi
    66ec:	00 
    66ed:	48 89 cf             	mov    rdi,rcx
    66f0:	48 89 b4 24 b0 00 00 	mov    QWORD PTR [rsp+0xb0],rsi
    66f7:	00 
    66f8:	88 84 24 af 00 00 00 	mov    BYTE PTR [rsp+0xaf],al
    66ff:	e8 fc 23 00 00       	call   8b00 <_ZN4core5alloc6layout6Layout4size17h1ca534bde82f7d8fE>
    6704:	48 89 84 24 f0 00 00 	mov    QWORD PTR [rsp+0xf0],rax
    670b:	00 
    670c:	48 83 bc 24 f0 00 00 	cmp    QWORD PTR [rsp+0xf0],0x0
    6713:	00 00 
    6715:	75 3f                	jne    6756 <_ZN5alloc5alloc6Global9grow_impl17hb43a6f50f4e02062E+0xc6>
    6717:	48 8b b4 24 d0 00 00 	mov    rsi,QWORD PTR [rsp+0xd0]
    671e:	00 
    671f:	48 8b 94 24 d8 00 00 	mov    rdx,QWORD PTR [rsp+0xd8]
    6726:	00 
    6727:	8a 84 24 af 00 00 00 	mov    al,BYTE PTR [rsp+0xaf]
    672e:	0f b6 c8             	movzx  ecx,al
    6731:	83 e1 01             	and    ecx,0x1
    6734:	48 8b bc 24 b8 00 00 	mov    rdi,QWORD PTR [rsp+0xb8]
    673b:	00 
    673c:	e8 cf fd ff ff       	call   6510 <_ZN5alloc5alloc6Global10alloc_impl17hf3f30e76bac3f411E>
    6741:	48 89 94 24 e8 00 00 	mov    QWORD PTR [rsp+0xe8],rdx
    6748:	00 
    6749:	48 89 84 24 e0 00 00 	mov    QWORD PTR [rsp+0xe0],rax
    6750:	00 
    6751:	e9 67 03 00 00       	jmp    6abd <_ZN5alloc5alloc6Global9grow_impl17hb43a6f50f4e02062E+0x42d>
    6756:	48 8d 84 24 f0 00 00 	lea    rax,[rsp+0xf0]
    675d:	00 
    675e:	48 89 84 24 40 01 00 	mov    QWORD PTR [rsp+0x140],rax
    6765:	00 
    6766:	48 8d bc 24 c0 00 00 	lea    rdi,[rsp+0xc0]
    676d:	00 
    676e:	e8 9d 23 00 00       	call   8b10 <_ZN4core5alloc6layout6Layout5align17h4d20852f32a8a9fdE>
    6773:	48 89 84 24 a0 00 00 	mov    QWORD PTR [rsp+0xa0],rax
    677a:	00 
    677b:	48 8d bc 24 d0 00 00 	lea    rdi,[rsp+0xd0]
    6782:	00 
    6783:	e8 88 23 00 00       	call   8b10 <_ZN4core5alloc6layout6Layout5align17h4d20852f32a8a9fdE>
    6788:	48 89 84 24 98 00 00 	mov    QWORD PTR [rsp+0x98],rax
    678f:	00 
    6790:	48 8b 84 24 a0 00 00 	mov    rax,QWORD PTR [rsp+0xa0]
    6797:	00 
    6798:	48 8b 8c 24 98 00 00 	mov    rcx,QWORD PTR [rsp+0x98]
    679f:	00 
    67a0:	48 39 c8             	cmp    rax,rcx
    67a3:	75 37                	jne    67dc <_ZN5alloc5alloc6Global9grow_impl17hb43a6f50f4e02062E+0x14c>
    67a5:	48 8b 84 24 f0 00 00 	mov    rax,QWORD PTR [rsp+0xf0]
    67ac:	00 
    67ad:	48 89 84 24 48 01 00 	mov    QWORD PTR [rsp+0x148],rax
    67b4:	00 
    67b5:	48 8d bc 24 d0 00 00 	lea    rdi,[rsp+0xd0]
    67bc:	00 
    67bd:	48 89 84 24 90 00 00 	mov    QWORD PTR [rsp+0x90],rax
    67c4:	00 
    67c5:	e8 36 23 00 00       	call   8b00 <_ZN4core5alloc6layout6Layout4size17h1ca534bde82f7d8fE>
    67ca:	48 89 84 24 50 01 00 	mov    QWORD PTR [rsp+0x150],rax
    67d1:	00 
    67d2:	48 89 84 24 88 00 00 	mov    QWORD PTR [rsp+0x88],rax
    67d9:	00 
    67da:	eb 5f                	jmp    683b <_ZN5alloc5alloc6Global9grow_impl17hb43a6f50f4e02062E+0x1ab>
    67dc:	48 8b 84 24 f0 00 00 	mov    rax,QWORD PTR [rsp+0xf0]
    67e3:	00 
    67e4:	48 89 84 24 70 01 00 	mov    QWORD PTR [rsp+0x170],rax
    67eb:	00 
    67ec:	48 8b b4 24 d0 00 00 	mov    rsi,QWORD PTR [rsp+0xd0]
    67f3:	00 
    67f4:	48 8b 94 24 d8 00 00 	mov    rdx,QWORD PTR [rsp+0xd8]
    67fb:	00 
    67fc:	8a 8c 24 af 00 00 00 	mov    cl,BYTE PTR [rsp+0xaf]
    6803:	0f b6 f9             	movzx  edi,cl
    6806:	83 e7 01             	and    edi,0x1
    6809:	4c 8b 84 24 b8 00 00 	mov    r8,QWORD PTR [rsp+0xb8]
    6810:	00 
    6811:	89 bc 24 84 00 00 00 	mov    DWORD PTR [rsp+0x84],edi
    6818:	4c 89 c7             	mov    rdi,r8
    681b:	8b 8c 24 84 00 00 00 	mov    ecx,DWORD PTR [rsp+0x84]
    6822:	48 89 44 24 78       	mov    QWORD PTR [rsp+0x78],rax
    6827:	e8 e4 fc ff ff       	call   6510 <_ZN5alloc5alloc6Global10alloc_impl17hf3f30e76bac3f411E>
    682c:	48 89 54 24 70       	mov    QWORD PTR [rsp+0x70],rdx
    6831:	48 89 44 24 68       	mov    QWORD PTR [rsp+0x68],rax
    6836:	e9 74 01 00 00       	jmp    69af <_ZN5alloc5alloc6Global9grow_impl17hb43a6f50f4e02062E+0x31f>
    683b:	48 8d bc 24 c0 00 00 	lea    rdi,[rsp+0xc0]
    6842:	00 
    6843:	e8 b8 22 00 00       	call   8b00 <_ZN4core5alloc6layout6Layout4size17h1ca534bde82f7d8fE>
    6848:	48 8b bc 24 b0 00 00 	mov    rdi,QWORD PTR [rsp+0xb0]
    684f:	00 
    6850:	e8 1b 0c 00 00       	call   7470 <_ZN4core3ptr8non_null16NonNull$LT$T$GT$6as_ptr17h6cc5f652a3c8a2aeE>
    6855:	48 89 44 24 60       	mov    QWORD PTR [rsp+0x60],rax
    685a:	48 8b b4 24 c0 00 00 	mov    rsi,QWORD PTR [rsp+0xc0]
    6861:	00 
    6862:	48 8b 94 24 c8 00 00 	mov    rdx,QWORD PTR [rsp+0xc8]
    6869:	00 
    686a:	48 8b 7c 24 60       	mov    rdi,QWORD PTR [rsp+0x60]
    686f:	48 8b 8c 24 88 00 00 	mov    rcx,QWORD PTR [rsp+0x88]
    6876:	00 
    6877:	e8 b4 02 00 00       	call   6b30 <_ZN5alloc5alloc7realloc17hd013bf59f87a182fE>
    687c:	48 89 84 24 58 01 00 	mov    QWORD PTR [rsp+0x158],rax
    6883:	00 
    6884:	48 89 44 24 58       	mov    QWORD PTR [rsp+0x58],rax
    6889:	48 8b 7c 24 58       	mov    rdi,QWORD PTR [rsp+0x58]
    688e:	e8 2d 0b 00 00       	call   73c0 <_ZN4core3ptr8non_null16NonNull$LT$T$GT$3new17hd0667006c61e6097E>
    6893:	48 89 44 24 50       	mov    QWORD PTR [rsp+0x50],rax
    6898:	48 8b 7c 24 50       	mov    rdi,QWORD PTR [rsp+0x50]
    689d:	e8 de e9 ff ff       	call   5280 <_ZN4core6option15Option$LT$T$GT$5ok_or17h61dc4c3275c140d2E>
    68a2:	48 89 44 24 48       	mov    QWORD PTR [rsp+0x48],rax
    68a7:	48 8b 7c 24 48       	mov    rdi,QWORD PTR [rsp+0x48]
    68ac:	e8 bf 09 00 00       	call   7270 <_ZN73_$LT$core..result..Result$LT$T$C$E$GT$$u20$as$u20$core..ops..try..Try$GT$11into_result17h0af40dc80752e4f6E>
    68b1:	48 89 84 24 f8 00 00 	mov    QWORD PTR [rsp+0xf8],rax
    68b8:	00 
    68b9:	48 8b 84 24 f8 00 00 	mov    rax,QWORD PTR [rsp+0xf8]
    68c0:	00 
    68c1:	48 85 c0             	test   rax,rax
    68c4:	0f 94 c1             	sete   cl
    68c7:	0f b6 d1             	movzx  edx,cl
    68ca:	89 d0                	mov    eax,edx
    68cc:	75 04                	jne    68d2 <_ZN5alloc5alloc6Global9grow_impl17hb43a6f50f4e02062E+0x242>
    68ce:	eb 00                	jmp    68d0 <_ZN5alloc5alloc6Global9grow_impl17hb43a6f50f4e02062E+0x240>
    68d0:	eb 2d                	jmp    68ff <_ZN5alloc5alloc6Global9grow_impl17hb43a6f50f4e02062E+0x26f>
    68d2:	48 8b 84 24 f8 00 00 	mov    rax,QWORD PTR [rsp+0xf8]
    68d9:	00 
    68da:	48 89 84 24 60 01 00 	mov    QWORD PTR [rsp+0x160],rax
    68e1:	00 
    68e2:	48 89 84 24 68 01 00 	mov    QWORD PTR [rsp+0x168],rax
    68e9:	00 
    68ea:	8a 8c 24 af 00 00 00 	mov    cl,BYTE PTR [rsp+0xaf]
    68f1:	f6 c1 01             	test   cl,0x1
    68f4:	48 89 44 24 40       	mov    QWORD PTR [rsp+0x40],rax
    68f9:	75 3e                	jne    6939 <_ZN5alloc5alloc6Global9grow_impl17hb43a6f50f4e02062E+0x2a9>
    68fb:	eb 3a                	jmp    6937 <_ZN5alloc5alloc6Global9grow_impl17hb43a6f50f4e02062E+0x2a7>
    68fd:	0f 0b                	ud2    
    68ff:	e8 4c f9 ff ff       	call   6250 <_ZN50_$LT$T$u20$as$u20$core..convert..From$LT$T$GT$$GT$4from17he80ddb3e8ac713d9E>
    6904:	eb 18                	jmp    691e <_ZN5alloc5alloc6Global9grow_impl17hb43a6f50f4e02062E+0x28e>
    6906:	48 8b 84 24 e0 00 00 	mov    rax,QWORD PTR [rsp+0xe0]
    690d:	00 
    690e:	48 8b 94 24 e8 00 00 	mov    rdx,QWORD PTR [rsp+0xe8]
    6915:	00 
    6916:	48 81 c4 98 01 00 00 	add    rsp,0x198
    691d:	c3                   	ret    
    691e:	e8 ed 08 00 00       	call   7210 <_ZN73_$LT$core..result..Result$LT$T$C$E$GT$$u20$as$u20$core..ops..try..Try$GT$10from_error17h691a7710dfb0296aE>
    6923:	48 89 94 24 e8 00 00 	mov    QWORD PTR [rsp+0xe8],rdx
    692a:	00 
    692b:	48 89 84 24 e0 00 00 	mov    QWORD PTR [rsp+0xe0],rax
    6932:	00 
    6933:	eb 00                	jmp    6935 <_ZN5alloc5alloc6Global9grow_impl17hb43a6f50f4e02062E+0x2a5>
    6935:	eb cf                	jmp    6906 <_ZN5alloc5alloc6Global9grow_impl17hb43a6f50f4e02062E+0x276>
    6937:	eb 3b                	jmp    6974 <_ZN5alloc5alloc6Global9grow_impl17hb43a6f50f4e02062E+0x2e4>
    6939:	48 8b 7c 24 58       	mov    rdi,QWORD PTR [rsp+0x58]
    693e:	48 8b b4 24 90 00 00 	mov    rsi,QWORD PTR [rsp+0x90]
    6945:	00 
    6946:	e8 25 14 00 00       	call   7d70 <_ZN4core3ptr7mut_ptr31_$LT$impl$u20$$BP$mut$u20$T$GT$3add17h4a18704eb0b729c4E>
    694b:	48 89 44 24 38       	mov    QWORD PTR [rsp+0x38],rax
    6950:	31 f6                	xor    esi,esi
    6952:	48 8b 84 24 88 00 00 	mov    rax,QWORD PTR [rsp+0x88]
    6959:	00 
    695a:	48 8b 8c 24 90 00 00 	mov    rcx,QWORD PTR [rsp+0x90]
    6961:	00 
    6962:	48 29 c8             	sub    rax,rcx
    6965:	48 8b 7c 24 38       	mov    rdi,QWORD PTR [rsp+0x38]
    696a:	48 89 c2             	mov    rdx,rax
    696d:	e8 ae 13 00 00       	call   7d20 <_ZN4core3ptr7mut_ptr31_$LT$impl$u20$$BP$mut$u20$T$GT$11write_bytes17h8fc5d9a0733543dbE>
    6972:	eb 00                	jmp    6974 <_ZN5alloc5alloc6Global9grow_impl17hb43a6f50f4e02062E+0x2e4>
    6974:	48 8b 7c 24 40       	mov    rdi,QWORD PTR [rsp+0x40]
    6979:	48 8b b4 24 88 00 00 	mov    rsi,QWORD PTR [rsp+0x88]
    6980:	00 
    6981:	e8 8a 0b 00 00       	call   7510 <_ZN4core3ptr8non_null26NonNull$LT$$u5b$T$u5d$$GT$20slice_from_raw_parts17hef949333e82dfd31E>
    6986:	48 89 44 24 30       	mov    QWORD PTR [rsp+0x30],rax
    698b:	48 89 54 24 28       	mov    QWORD PTR [rsp+0x28],rdx
    6990:	48 8b 44 24 30       	mov    rax,QWORD PTR [rsp+0x30]
    6995:	48 89 84 24 e0 00 00 	mov    QWORD PTR [rsp+0xe0],rax
    699c:	00 
    699d:	48 8b 4c 24 28       	mov    rcx,QWORD PTR [rsp+0x28]
    69a2:	48 89 8c 24 e8 00 00 	mov    QWORD PTR [rsp+0xe8],rcx
    69a9:	00 
    69aa:	e9 0e 01 00 00       	jmp    6abd <_ZN5alloc5alloc6Global9grow_impl17hb43a6f50f4e02062E+0x42d>
    69af:	48 8b 7c 24 68       	mov    rdi,QWORD PTR [rsp+0x68]
    69b4:	48 8b 74 24 70       	mov    rsi,QWORD PTR [rsp+0x70]
    69b9:	e8 c2 08 00 00       	call   7280 <_ZN73_$LT$core..result..Result$LT$T$C$E$GT$$u20$as$u20$core..ops..try..Try$GT$11into_result17h1cf0415c4842f2b8E>
    69be:	48 89 94 24 10 01 00 	mov    QWORD PTR [rsp+0x110],rdx
    69c5:	00 
    69c6:	48 89 84 24 08 01 00 	mov    QWORD PTR [rsp+0x108],rax
    69cd:	00 
    69ce:	48 8b 84 24 08 01 00 	mov    rax,QWORD PTR [rsp+0x108]
    69d5:	00 
    69d6:	48 85 c0             	test   rax,rax
    69d9:	0f 94 c1             	sete   cl
    69dc:	0f b6 d1             	movzx  edx,cl
    69df:	89 d0                	mov    eax,edx
    69e1:	75 04                	jne    69e7 <_ZN5alloc5alloc6Global9grow_impl17hb43a6f50f4e02062E+0x357>
    69e3:	eb 00                	jmp    69e5 <_ZN5alloc5alloc6Global9grow_impl17hb43a6f50f4e02062E+0x355>
    69e5:	eb 50                	jmp    6a37 <_ZN5alloc5alloc6Global9grow_impl17hb43a6f50f4e02062E+0x3a7>
    69e7:	48 8b 84 24 08 01 00 	mov    rax,QWORD PTR [rsp+0x108]
    69ee:	00 
    69ef:	48 8b 8c 24 10 01 00 	mov    rcx,QWORD PTR [rsp+0x110]
    69f6:	00 
    69f7:	48 89 84 24 78 01 00 	mov    QWORD PTR [rsp+0x178],rax
    69fe:	00 
    69ff:	48 89 8c 24 80 01 00 	mov    QWORD PTR [rsp+0x180],rcx
    6a06:	00 
    6a07:	48 89 84 24 88 01 00 	mov    QWORD PTR [rsp+0x188],rax
    6a0e:	00 
    6a0f:	48 89 8c 24 90 01 00 	mov    QWORD PTR [rsp+0x190],rcx
    6a16:	00 
    6a17:	48 8b bc 24 b0 00 00 	mov    rdi,QWORD PTR [rsp+0xb0]
    6a1e:	00 
    6a1f:	48 89 44 24 20       	mov    QWORD PTR [rsp+0x20],rax
    6a24:	48 89 4c 24 18       	mov    QWORD PTR [rsp+0x18],rcx
    6a29:	e8 42 0a 00 00       	call   7470 <_ZN4core3ptr8non_null16NonNull$LT$T$GT$6as_ptr17h6cc5f652a3c8a2aeE>
    6a2e:	48 89 44 24 10       	mov    QWORD PTR [rsp+0x10],rax
    6a33:	eb 21                	jmp    6a56 <_ZN5alloc5alloc6Global9grow_impl17hb43a6f50f4e02062E+0x3c6>
    6a35:	0f 0b                	ud2    
    6a37:	e8 14 f8 ff ff       	call   6250 <_ZN50_$LT$T$u20$as$u20$core..convert..From$LT$T$GT$$GT$4from17he80ddb3e8ac713d9E>
    6a3c:	e8 cf 07 00 00       	call   7210 <_ZN73_$LT$core..result..Result$LT$T$C$E$GT$$u20$as$u20$core..ops..try..Try$GT$10from_error17h691a7710dfb0296aE>
    6a41:	48 89 94 24 e8 00 00 	mov    QWORD PTR [rsp+0xe8],rdx
    6a48:	00 
    6a49:	48 89 84 24 e0 00 00 	mov    QWORD PTR [rsp+0xe0],rax
    6a50:	00 
    6a51:	e9 df fe ff ff       	jmp    6935 <_ZN5alloc5alloc6Global9grow_impl17hb43a6f50f4e02062E+0x2a5>
    6a56:	48 8b 7c 24 20       	mov    rdi,QWORD PTR [rsp+0x20]
    6a5b:	48 8b 74 24 18       	mov    rsi,QWORD PTR [rsp+0x18]
    6a60:	e8 1b 0a 00 00       	call   7480 <_ZN4core3ptr8non_null26NonNull$LT$$u5b$T$u5d$$GT$10as_mut_ptr17hea1373e3936488afE>
    6a65:	48 89 44 24 08       	mov    QWORD PTR [rsp+0x8],rax
    6a6a:	48 8b 7c 24 10       	mov    rdi,QWORD PTR [rsp+0x10]
    6a6f:	48 8b 74 24 08       	mov    rsi,QWORD PTR [rsp+0x8]
    6a74:	48 8b 54 24 78       	mov    rdx,QWORD PTR [rsp+0x78]
    6a79:	e8 72 f9 ff ff       	call   63f0 <_ZN4core10intrinsics19copy_nonoverlapping17h8595eb14b6e6c582E>
    6a7e:	48 8b 94 24 c0 00 00 	mov    rdx,QWORD PTR [rsp+0xc0]
    6a85:	00 
    6a86:	48 8b 8c 24 c8 00 00 	mov    rcx,QWORD PTR [rsp+0xc8]
    6a8d:	00 
    6a8e:	48 8b bc 24 b8 00 00 	mov    rdi,QWORD PTR [rsp+0xb8]
    6a95:	00 
    6a96:	48 8b b4 24 b0 00 00 	mov    rsi,QWORD PTR [rsp+0xb0]
    6a9d:	00 
    6a9e:	e8 cd 01 00 00       	call   6c70 <_ZN62_$LT$alloc..alloc..Global$u20$as$u20$core..alloc..AllocRef$GT$7dealloc17h57106358abc3a51dE>
    6aa3:	48 8b 44 24 20       	mov    rax,QWORD PTR [rsp+0x20]
    6aa8:	48 89 84 24 e0 00 00 	mov    QWORD PTR [rsp+0xe0],rax
    6aaf:	00 
    6ab0:	48 8b 4c 24 18       	mov    rcx,QWORD PTR [rsp+0x18]
    6ab5:	48 89 8c 24 e8 00 00 	mov    QWORD PTR [rsp+0xe8],rcx
    6abc:	00 
    6abd:	e9 44 fe ff ff       	jmp    6906 <_ZN5alloc5alloc6Global9grow_impl17hb43a6f50f4e02062E+0x276>
    6ac2:	66 2e 0f 1f 84 00 00 	nop    WORD PTR cs:[rax+rax*1+0x0]
    6ac9:	00 00 00 
    6acc:	0f 1f 40 00          	nop    DWORD PTR [rax+0x0]

0000000000006ad0 <_ZN5alloc5alloc7dealloc17hb9a5b101355bf7feE>:
    6ad0:	48 83 ec 38          	sub    rsp,0x38
    6ad4:	48 89 74 24 20       	mov    QWORD PTR [rsp+0x20],rsi
    6ad9:	48 89 54 24 28       	mov    QWORD PTR [rsp+0x28],rdx
    6ade:	48 89 7c 24 30       	mov    QWORD PTR [rsp+0x30],rdi
    6ae3:	48 8d 44 24 20       	lea    rax,[rsp+0x20]
    6ae8:	48 89 7c 24 18       	mov    QWORD PTR [rsp+0x18],rdi
    6aed:	48 89 c7             	mov    rdi,rax
    6af0:	e8 0b 20 00 00       	call   8b00 <_ZN4core5alloc6layout6Layout4size17h1ca534bde82f7d8fE>
    6af5:	48 89 44 24 10       	mov    QWORD PTR [rsp+0x10],rax
    6afa:	48 8d 7c 24 20       	lea    rdi,[rsp+0x20]
    6aff:	e8 0c 20 00 00       	call   8b10 <_ZN4core5alloc6layout6Layout5align17h4d20852f32a8a9fdE>
    6b04:	48 89 44 24 08       	mov    QWORD PTR [rsp+0x8],rax
    6b09:	48 8b 7c 24 18       	mov    rdi,QWORD PTR [rsp+0x18]
    6b0e:	48 8b 74 24 10       	mov    rsi,QWORD PTR [rsp+0x10]
    6b13:	48 8b 54 24 08       	mov    rdx,QWORD PTR [rsp+0x8]
    6b18:	ff 15 0a 31 04 00    	call   QWORD PTR [rip+0x4310a]        # 49c28 <_GLOBAL_OFFSET_TABLE_+0x268>
    6b1e:	48 83 c4 38          	add    rsp,0x38
    6b22:	c3                   	ret    
    6b23:	66 2e 0f 1f 84 00 00 	nop    WORD PTR cs:[rax+rax*1+0x0]
    6b2a:	00 00 00 
    6b2d:	0f 1f 00             	nop    DWORD PTR [rax]

0000000000006b30 <_ZN5alloc5alloc7realloc17hd013bf59f87a182fE>:
    6b30:	48 83 ec 48          	sub    rsp,0x48
    6b34:	48 89 74 24 28       	mov    QWORD PTR [rsp+0x28],rsi
    6b39:	48 89 54 24 30       	mov    QWORD PTR [rsp+0x30],rdx
    6b3e:	48 89 7c 24 38       	mov    QWORD PTR [rsp+0x38],rdi
    6b43:	48 89 4c 24 40       	mov    QWORD PTR [rsp+0x40],rcx
    6b48:	48 8d 44 24 28       	lea    rax,[rsp+0x28]
    6b4d:	48 89 7c 24 20       	mov    QWORD PTR [rsp+0x20],rdi
    6b52:	48 89 c7             	mov    rdi,rax
    6b55:	48 89 4c 24 18       	mov    QWORD PTR [rsp+0x18],rcx
    6b5a:	e8 a1 1f 00 00       	call   8b00 <_ZN4core5alloc6layout6Layout4size17h1ca534bde82f7d8fE>
    6b5f:	48 89 44 24 10       	mov    QWORD PTR [rsp+0x10],rax
    6b64:	48 8d 7c 24 28       	lea    rdi,[rsp+0x28]
    6b69:	e8 a2 1f 00 00       	call   8b10 <_ZN4core5alloc6layout6Layout5align17h4d20852f32a8a9fdE>
    6b6e:	48 89 44 24 08       	mov    QWORD PTR [rsp+0x8],rax
    6b73:	48 8b 7c 24 20       	mov    rdi,QWORD PTR [rsp+0x20]
    6b78:	48 8b 74 24 10       	mov    rsi,QWORD PTR [rsp+0x10]
    6b7d:	48 8b 54 24 08       	mov    rdx,QWORD PTR [rsp+0x8]
    6b82:	48 8b 4c 24 18       	mov    rcx,QWORD PTR [rsp+0x18]
    6b87:	ff 15 03 34 04 00    	call   QWORD PTR [rip+0x43403]        # 49f90 <_GLOBAL_OFFSET_TABLE_+0x5d0>
    6b8d:	48 89 04 24          	mov    QWORD PTR [rsp],rax
    6b91:	48 8b 04 24          	mov    rax,QWORD PTR [rsp]
    6b95:	48 83 c4 48          	add    rsp,0x48
    6b99:	c3                   	ret    
    6b9a:	66 0f 1f 44 00 00    	nop    WORD PTR [rax+rax*1+0x0]

0000000000006ba0 <_ZN62_$LT$alloc..alloc..Global$u20$as$u20$core..alloc..AllocRef$GT$12alloc_zeroed17hda632bac1da4a47aE>:
    6ba0:	48 83 ec 28          	sub    rsp,0x28
    6ba4:	48 89 7c 24 10       	mov    QWORD PTR [rsp+0x10],rdi
    6ba9:	48 89 74 24 18       	mov    QWORD PTR [rsp+0x18],rsi
    6bae:	48 89 54 24 20       	mov    QWORD PTR [rsp+0x20],rdx
    6bb3:	b9 01 00 00 00       	mov    ecx,0x1
    6bb8:	e8 53 f9 ff ff       	call   6510 <_ZN5alloc5alloc6Global10alloc_impl17hf3f30e76bac3f411E>
    6bbd:	48 89 44 24 08       	mov    QWORD PTR [rsp+0x8],rax
    6bc2:	48 89 14 24          	mov    QWORD PTR [rsp],rdx
    6bc6:	48 8b 44 24 08       	mov    rax,QWORD PTR [rsp+0x8]
    6bcb:	48 8b 14 24          	mov    rdx,QWORD PTR [rsp]
    6bcf:	48 83 c4 28          	add    rsp,0x28
    6bd3:	c3                   	ret    
    6bd4:	66 2e 0f 1f 84 00 00 	nop    WORD PTR cs:[rax+rax*1+0x0]
    6bdb:	00 00 00 
    6bde:	66 90                	xchg   ax,ax

0000000000006be0 <_ZN62_$LT$alloc..alloc..Global$u20$as$u20$core..alloc..AllocRef$GT$4grow17hea2c1dcc4fdd5102E>:
    6be0:	48 83 ec 58          	sub    rsp,0x58
    6be4:	31 c0                	xor    eax,eax
    6be6:	48 89 7c 24 28       	mov    QWORD PTR [rsp+0x28],rdi
    6beb:	48 89 74 24 30       	mov    QWORD PTR [rsp+0x30],rsi
    6bf0:	48 89 54 24 38       	mov    QWORD PTR [rsp+0x38],rdx
    6bf5:	48 89 4c 24 40       	mov    QWORD PTR [rsp+0x40],rcx
    6bfa:	4c 89 44 24 48       	mov    QWORD PTR [rsp+0x48],r8
    6bff:	4c 89 4c 24 50       	mov    QWORD PTR [rsp+0x50],r9
    6c04:	c7 04 24 00 00 00 00 	mov    DWORD PTR [rsp],0x0
    6c0b:	89 44 24 24          	mov    DWORD PTR [rsp+0x24],eax
    6c0f:	e8 7c fa ff ff       	call   6690 <_ZN5alloc5alloc6Global9grow_impl17hb43a6f50f4e02062E>
    6c14:	48 89 44 24 18       	mov    QWORD PTR [rsp+0x18],rax
    6c19:	48 89 54 24 10       	mov    QWORD PTR [rsp+0x10],rdx
    6c1e:	48 8b 44 24 18       	mov    rax,QWORD PTR [rsp+0x18]
    6c23:	48 8b 54 24 10       	mov    rdx,QWORD PTR [rsp+0x10]
    6c28:	48 83 c4 58          	add    rsp,0x58
    6c2c:	c3                   	ret    
    6c2d:	0f 1f 00             	nop    DWORD PTR [rax]

0000000000006c30 <_ZN62_$LT$alloc..alloc..Global$u20$as$u20$core..alloc..AllocRef$GT$5alloc17h7036085b6c983fa7E>:
    6c30:	48 83 ec 28          	sub    rsp,0x28
    6c34:	31 c9                	xor    ecx,ecx
    6c36:	48 89 7c 24 10       	mov    QWORD PTR [rsp+0x10],rdi
    6c3b:	48 89 74 24 18       	mov    QWORD PTR [rsp+0x18],rsi
    6c40:	48 89 54 24 20       	mov    QWORD PTR [rsp+0x20],rdx
    6c45:	e8 c6 f8 ff ff       	call   6510 <_ZN5alloc5alloc6Global10alloc_impl17hf3f30e76bac3f411E>
    6c4a:	48 89 44 24 08       	mov    QWORD PTR [rsp+0x8],rax
    6c4f:	48 89 14 24          	mov    QWORD PTR [rsp],rdx
    6c53:	48 8b 44 24 08       	mov    rax,QWORD PTR [rsp+0x8]
    6c58:	48 8b 14 24          	mov    rdx,QWORD PTR [rsp]
    6c5c:	48 83 c4 28          	add    rsp,0x28
    6c60:	c3                   	ret    
    6c61:	66 2e 0f 1f 84 00 00 	nop    WORD PTR cs:[rax+rax*1+0x0]
    6c68:	00 00 00 
    6c6b:	0f 1f 44 00 00       	nop    DWORD PTR [rax+rax*1+0x0]

0000000000006c70 <_ZN62_$LT$alloc..alloc..Global$u20$as$u20$core..alloc..AllocRef$GT$7dealloc17h57106358abc3a51dE>:
    6c70:	48 83 ec 48          	sub    rsp,0x48
    6c74:	48 89 54 24 20       	mov    QWORD PTR [rsp+0x20],rdx
    6c79:	48 89 4c 24 28       	mov    QWORD PTR [rsp+0x28],rcx
    6c7e:	48 89 7c 24 38       	mov    QWORD PTR [rsp+0x38],rdi
    6c83:	48 89 74 24 40       	mov    QWORD PTR [rsp+0x40],rsi
    6c88:	48 8d 7c 24 20       	lea    rdi,[rsp+0x20]
    6c8d:	48 89 74 24 18       	mov    QWORD PTR [rsp+0x18],rsi
    6c92:	e8 69 1e 00 00       	call   8b00 <_ZN4core5alloc6layout6Layout4size17h1ca534bde82f7d8fE>
    6c97:	48 89 44 24 10       	mov    QWORD PTR [rsp+0x10],rax
    6c9c:	48 8b 44 24 10       	mov    rax,QWORD PTR [rsp+0x10]
    6ca1:	48 83 f8 00          	cmp    rax,0x0
    6ca5:	75 02                	jne    6ca9 <_ZN62_$LT$alloc..alloc..Global$u20$as$u20$core..alloc..AllocRef$GT$7dealloc17h57106358abc3a51dE+0x39>
    6ca7:	eb 25                	jmp    6cce <_ZN62_$LT$alloc..alloc..Global$u20$as$u20$core..alloc..AllocRef$GT$7dealloc17h57106358abc3a51dE+0x5e>
    6ca9:	48 8b 7c 24 18       	mov    rdi,QWORD PTR [rsp+0x18]
    6cae:	e8 bd 07 00 00       	call   7470 <_ZN4core3ptr8non_null16NonNull$LT$T$GT$6as_ptr17h6cc5f652a3c8a2aeE>
    6cb3:	48 89 44 24 08       	mov    QWORD PTR [rsp+0x8],rax
    6cb8:	48 8b 74 24 20       	mov    rsi,QWORD PTR [rsp+0x20]
    6cbd:	48 8b 54 24 28       	mov    rdx,QWORD PTR [rsp+0x28]
    6cc2:	48 8b 7c 24 08       	mov    rdi,QWORD PTR [rsp+0x8]
    6cc7:	e8 04 fe ff ff       	call   6ad0 <_ZN5alloc5alloc7dealloc17hb9a5b101355bf7feE>
    6ccc:	eb 00                	jmp    6cce <_ZN62_$LT$alloc..alloc..Global$u20$as$u20$core..alloc..AllocRef$GT$7dealloc17h57106358abc3a51dE+0x5e>
    6cce:	48 83 c4 48          	add    rsp,0x48
    6cd2:	c3                   	ret    
    6cd3:	66 2e 0f 1f 84 00 00 	nop    WORD PTR cs:[rax+rax*1+0x0]
    6cda:	00 00 00 
    6cdd:	0f 1f 00             	nop    DWORD PTR [rax]

0000000000006ce0 <_ZN4core3fmt10ArgumentV13new17h7afee37c0c9f8118E>:
    6ce0:	48 83 ec 48          	sub    rsp,0x48
    6ce4:	48 89 7c 24 28       	mov    QWORD PTR [rsp+0x28],rdi
    6ce9:	48 89 74 24 30       	mov    QWORD PTR [rsp+0x30],rsi
    6cee:	48 89 74 24 38       	mov    QWORD PTR [rsp+0x38],rsi
    6cf3:	48 8b 44 24 38       	mov    rax,QWORD PTR [rsp+0x38]
    6cf8:	48 89 7c 24 10       	mov    QWORD PTR [rsp+0x10],rdi
    6cfd:	48 89 44 24 08       	mov    QWORD PTR [rsp+0x8],rax
    6d02:	48 8b 44 24 10       	mov    rax,QWORD PTR [rsp+0x10]
    6d07:	48 89 44 24 40       	mov    QWORD PTR [rsp+0x40],rax
    6d0c:	48 8b 4c 24 40       	mov    rcx,QWORD PTR [rsp+0x40]
    6d11:	48 89 0c 24          	mov    QWORD PTR [rsp],rcx
    6d15:	48 8b 04 24          	mov    rax,QWORD PTR [rsp]
    6d19:	48 89 44 24 18       	mov    QWORD PTR [rsp+0x18],rax
    6d1e:	48 8b 4c 24 08       	mov    rcx,QWORD PTR [rsp+0x8]
    6d23:	48 89 4c 24 20       	mov    QWORD PTR [rsp+0x20],rcx
    6d28:	48 8b 44 24 18       	mov    rax,QWORD PTR [rsp+0x18]
    6d2d:	48 8b 54 24 20       	mov    rdx,QWORD PTR [rsp+0x20]
    6d32:	48 83 c4 48          	add    rsp,0x48
    6d36:	c3                   	ret    
    6d37:	66 0f 1f 84 00 00 00 	nop    WORD PTR [rax+rax*1+0x0]
    6d3e:	00 00 

0000000000006d40 <_ZN54_$LT$$LP$$RP$$u20$as$u20$std..process..Termination$GT$6report17h51a1df20bb6492d6E>:
    6d40:	48 83 ec 18          	sub    rsp,0x18
    6d44:	31 ff                	xor    edi,edi
    6d46:	e8 15 00 00 00       	call   6d60 <_ZN68_$LT$std..process..ExitCode$u20$as$u20$std..process..Termination$GT$6report17h10f59887a0930830E>
    6d4b:	89 44 24 0c          	mov    DWORD PTR [rsp+0xc],eax
    6d4f:	8b 44 24 0c          	mov    eax,DWORD PTR [rsp+0xc]
    6d53:	48 83 c4 18          	add    rsp,0x18
    6d57:	c3                   	ret    
    6d58:	0f 1f 84 00 00 00 00 	nop    DWORD PTR [rax+rax*1+0x0]
    6d5f:	00 

0000000000006d60 <_ZN68_$LT$std..process..ExitCode$u20$as$u20$std..process..Termination$GT$6report17h10f59887a0930830E>:
    6d60:	50                   	push   rax
    6d61:	40 88 7c 24 07       	mov    BYTE PTR [rsp+0x7],dil
    6d66:	48 8d 7c 24 07       	lea    rdi,[rsp+0x7]
    6d6b:	e8 40 f6 ff ff       	call   63b0 <_ZN3std3sys4unix7process14process_common8ExitCode6as_i3217h11a2f6ffdc19e8e5E>
    6d70:	89 04 24             	mov    DWORD PTR [rsp],eax
    6d73:	8b 04 24             	mov    eax,DWORD PTR [rsp]
    6d76:	59                   	pop    rcx
    6d77:	c3                   	ret    
    6d78:	0f 1f 84 00 00 00 00 	nop    DWORD PTR [rax+rax*1+0x0]
    6d7f:	00 

0000000000006d80 <_ZN4core5alloc6layout10size_align17hc63305d6145ee5cdE>:
    6d80:	48 83 ec 30          	sub    rsp,0x30
    6d84:	48 c7 44 24 20 01 00 	mov    QWORD PTR [rsp+0x20],0x1
    6d8b:	00 00 
    6d8d:	48 8b 44 24 20       	mov    rax,QWORD PTR [rsp+0x20]
    6d92:	48 89 44 24 08       	mov    QWORD PTR [rsp+0x8],rax
    6d97:	48 c7 44 24 28 01 00 	mov    QWORD PTR [rsp+0x28],0x1
    6d9e:	00 00 
    6da0:	48 8b 44 24 28       	mov    rax,QWORD PTR [rsp+0x28]
    6da5:	48 89 04 24          	mov    QWORD PTR [rsp],rax
    6da9:	48 8b 44 24 08       	mov    rax,QWORD PTR [rsp+0x8]
    6dae:	48 89 44 24 10       	mov    QWORD PTR [rsp+0x10],rax
    6db3:	48 8b 0c 24          	mov    rcx,QWORD PTR [rsp]
    6db7:	48 89 4c 24 18       	mov    QWORD PTR [rsp+0x18],rcx
    6dbc:	48 8b 44 24 10       	mov    rax,QWORD PTR [rsp+0x10]
    6dc1:	48 8b 54 24 18       	mov    rdx,QWORD PTR [rsp+0x18]
    6dc6:	48 83 c4 30          	add    rsp,0x30
    6dca:	c3                   	ret    
    6dcb:	0f 1f 44 00 00       	nop    DWORD PTR [rax+rax*1+0x0]

0000000000006dd0 <_ZN4core5alloc6layout6Layout3new17h0330b526002107c6E>:
    6dd0:	48 83 ec 38          	sub    rsp,0x38
    6dd4:	e8 a7 ff ff ff       	call   6d80 <_ZN4core5alloc6layout10size_align17hc63305d6145ee5cdE>
    6dd9:	48 89 44 24 20       	mov    QWORD PTR [rsp+0x20],rax
    6dde:	48 89 54 24 18       	mov    QWORD PTR [rsp+0x18],rdx
    6de3:	48 8b 44 24 20       	mov    rax,QWORD PTR [rsp+0x20]
    6de8:	48 89 44 24 28       	mov    QWORD PTR [rsp+0x28],rax
    6ded:	48 8b 4c 24 18       	mov    rcx,QWORD PTR [rsp+0x18]
    6df2:	48 89 4c 24 30       	mov    QWORD PTR [rsp+0x30],rcx
    6df7:	48 89 c7             	mov    rdi,rax
    6dfa:	48 89 ce             	mov    rsi,rcx
    6dfd:	e8 ae 1c 00 00       	call   8ab0 <_ZN4core5alloc6layout6Layout25from_size_align_unchecked17h4a1243d30a33400dE>
    6e02:	48 89 44 24 10       	mov    QWORD PTR [rsp+0x10],rax
    6e07:	48 89 54 24 08       	mov    QWORD PTR [rsp+0x8],rdx
    6e0c:	48 8b 44 24 10       	mov    rax,QWORD PTR [rsp+0x10]
    6e11:	48 8b 54 24 08       	mov    rdx,QWORD PTR [rsp+0x8]
    6e16:	48 83 c4 38          	add    rsp,0x38
    6e1a:	c3                   	ret    
    6e1b:	0f 1f 44 00 00       	nop    DWORD PTR [rax+rax*1+0x0]

0000000000006e20 <_ZN4core5alloc6layout6Layout5array17h19093e9d9729af45E>:
    6e20:	48 81 ec c8 00 00 00 	sub    rsp,0xc8
    6e27:	48 89 bc 24 b0 00 00 	mov    QWORD PTR [rsp+0xb0],rdi
    6e2e:	00 
    6e2f:	48 89 7c 24 18       	mov    QWORD PTR [rsp+0x18],rdi
    6e34:	e8 97 ff ff ff       	call   6dd0 <_ZN4core5alloc6layout6Layout3new17h0330b526002107c6E>
    6e39:	48 89 94 24 90 00 00 	mov    QWORD PTR [rsp+0x90],rdx
    6e40:	00 
    6e41:	48 89 84 24 88 00 00 	mov    QWORD PTR [rsp+0x88],rax
    6e48:	00 
    6e49:	48 8d 7c 24 70       	lea    rdi,[rsp+0x70]
    6e4e:	48 8d b4 24 88 00 00 	lea    rsi,[rsp+0x88]
    6e55:	00 
    6e56:	48 8b 54 24 18       	mov    rdx,QWORD PTR [rsp+0x18]
    6e5b:	e8 e0 1c 00 00       	call   8b40 <_ZN4core5alloc6layout6Layout6repeat17h9babb3bbb6780907E>
    6e60:	48 8d 7c 24 58       	lea    rdi,[rsp+0x58]
    6e65:	48 8d 74 24 70       	lea    rsi,[rsp+0x70]
    6e6a:	e8 51 04 00 00       	call   72c0 <_ZN73_$LT$core..result..Result$LT$T$C$E$GT$$u20$as$u20$core..ops..try..Try$GT$11into_result17h5d95b122e96ef929E>
    6e6f:	48 8b 44 24 60       	mov    rax,QWORD PTR [rsp+0x60]
    6e74:	48 85 c0             	test   rax,rax
    6e77:	0f 94 c1             	sete   cl
    6e7a:	0f b6 d1             	movzx  edx,cl
    6e7d:	89 d0                	mov    eax,edx
    6e7f:	75 07                	jne    6e88 <_ZN4core5alloc6layout6Layout5array17h19093e9d9729af45E+0x68>
    6e81:	eb 00                	jmp    6e83 <_ZN4core5alloc6layout6Layout5array17h19093e9d9729af45E+0x63>
    6e83:	e9 87 00 00 00       	jmp    6f0f <_ZN4core5alloc6layout6Layout5array17h19093e9d9729af45E+0xef>
    6e88:	48 8b 44 24 58       	mov    rax,QWORD PTR [rsp+0x58]
    6e8d:	48 89 84 24 98 00 00 	mov    QWORD PTR [rsp+0x98],rax
    6e94:	00 
    6e95:	48 8b 44 24 60       	mov    rax,QWORD PTR [rsp+0x60]
    6e9a:	48 89 84 24 a0 00 00 	mov    QWORD PTR [rsp+0xa0],rax
    6ea1:	00 
    6ea2:	48 8b 44 24 68       	mov    rax,QWORD PTR [rsp+0x68]
    6ea7:	48 89 84 24 a8 00 00 	mov    QWORD PTR [rsp+0xa8],rax
    6eae:	00 
    6eaf:	48 8b 84 24 98 00 00 	mov    rax,QWORD PTR [rsp+0x98]
    6eb6:	00 
    6eb7:	48 89 44 24 40       	mov    QWORD PTR [rsp+0x40],rax
    6ebc:	48 8b 84 24 a0 00 00 	mov    rax,QWORD PTR [rsp+0xa0]
    6ec3:	00 
    6ec4:	48 89 44 24 48       	mov    QWORD PTR [rsp+0x48],rax
    6ec9:	48 8b 84 24 a8 00 00 	mov    rax,QWORD PTR [rsp+0xa8]
    6ed0:	00 
    6ed1:	48 89 44 24 50       	mov    QWORD PTR [rsp+0x50],rax
    6ed6:	48 8b 44 24 40       	mov    rax,QWORD PTR [rsp+0x40]
    6edb:	48 8b 4c 24 48       	mov    rcx,QWORD PTR [rsp+0x48]
    6ee0:	48 89 44 24 30       	mov    QWORD PTR [rsp+0x30],rax
    6ee5:	48 89 4c 24 38       	mov    QWORD PTR [rsp+0x38],rcx
    6eea:	48 8b 44 24 50       	mov    rax,QWORD PTR [rsp+0x50]
    6eef:	48 89 84 24 c0 00 00 	mov    QWORD PTR [rsp+0xc0],rax
    6ef6:	00 
    6ef7:	48 8d 7c 24 30       	lea    rdi,[rsp+0x30]
    6efc:	e8 af 19 00 00       	call   88b0 <_ZN4core5alloc6layout6Layout12pad_to_align17hcc12dca63ba083ccE>
    6f01:	48 89 44 24 10       	mov    QWORD PTR [rsp+0x10],rax
    6f06:	48 89 54 24 08       	mov    QWORD PTR [rsp+0x8],rdx
    6f0b:	eb 2c                	jmp    6f39 <_ZN4core5alloc6layout6Layout5array17h19093e9d9729af45E+0x119>
    6f0d:	0f 0b                	ud2    
    6f0f:	e8 3c 00 00 00       	call   6f50 <_ZN50_$LT$T$u20$as$u20$core..convert..From$LT$T$GT$$GT$4from17h0f8cde22be9d2fe9E>
    6f14:	eb 12                	jmp    6f28 <_ZN4core5alloc6layout6Layout5array17h19093e9d9729af45E+0x108>
    6f16:	48 8b 44 24 20       	mov    rax,QWORD PTR [rsp+0x20]
    6f1b:	48 8b 54 24 28       	mov    rdx,QWORD PTR [rsp+0x28]
    6f20:	48 81 c4 c8 00 00 00 	add    rsp,0xc8
    6f27:	c3                   	ret    
    6f28:	e8 03 03 00 00       	call   7230 <_ZN73_$LT$core..result..Result$LT$T$C$E$GT$$u20$as$u20$core..ops..try..Try$GT$10from_error17h6c26e4d72cd3e8b5E>
    6f2d:	48 89 54 24 28       	mov    QWORD PTR [rsp+0x28],rdx
    6f32:	48 89 44 24 20       	mov    QWORD PTR [rsp+0x20],rax
    6f37:	eb dd                	jmp    6f16 <_ZN4core5alloc6layout6Layout5array17h19093e9d9729af45E+0xf6>
    6f39:	48 8b 44 24 10       	mov    rax,QWORD PTR [rsp+0x10]
    6f3e:	48 89 44 24 20       	mov    QWORD PTR [rsp+0x20],rax
    6f43:	48 8b 4c 24 08       	mov    rcx,QWORD PTR [rsp+0x8]
    6f48:	48 89 4c 24 28       	mov    QWORD PTR [rsp+0x28],rcx
    6f4d:	eb c7                	jmp    6f16 <_ZN4core5alloc6layout6Layout5array17h19093e9d9729af45E+0xf6>
    6f4f:	90                   	nop

0000000000006f50 <_ZN50_$LT$T$u20$as$u20$core..convert..From$LT$T$GT$$GT$4from17h0f8cde22be9d2fe9E>:
    6f50:	50                   	push   rax
    6f51:	58                   	pop    rax
    6f52:	c3                   	ret    
    6f53:	66 2e 0f 1f 84 00 00 	nop    WORD PTR cs:[rax+rax*1+0x0]
    6f5a:	00 00 00 
    6f5d:	0f 1f 00             	nop    DWORD PTR [rax]

0000000000006f60 <_ZN4core6result19Result$LT$T$C$E$GT$6unwrap17h6696405b0222aedaE>:
    6f60:	48 83 ec 48          	sub    rsp,0x48
    6f64:	48 89 7c 24 10       	mov    QWORD PTR [rsp+0x10],rdi
    6f69:	48 89 74 24 18       	mov    QWORD PTR [rsp+0x18],rsi
    6f6e:	48 8b 44 24 18       	mov    rax,QWORD PTR [rsp+0x18]
    6f73:	48 85 c0             	test   rax,rax
    6f76:	0f 94 c1             	sete   cl
    6f79:	44 0f b6 c1          	movzx  r8d,cl
    6f7d:	44 89 c0             	mov    eax,r8d
    6f80:	48 89 54 24 08       	mov    QWORD PTR [rsp+0x8],rdx
    6f85:	75 2c                	jne    6fb3 <_ZN4core6result19Result$LT$T$C$E$GT$6unwrap17h6696405b0222aedaE+0x53>
    6f87:	eb 00                	jmp    6f89 <_ZN4core6result19Result$LT$T$C$E$GT$6unwrap17h6696405b0222aedaE+0x29>
    6f89:	48 8d 3d 09 21 03 00 	lea    rdi,[rip+0x32109]        # 39099 <str.0+0x19>
    6f90:	48 8d 0d 49 07 04 00 	lea    rcx,[rip+0x40749]        # 476e0 <__do_global_dtors_aux_fini_array_entry+0x50>
    6f97:	48 8d 05 62 be 02 00 	lea    rax,[rip+0x2be62]        # 32e00 <_ZN4core6option18expect_none_failed17h6154dc750ae47adeE>
    6f9e:	be 2b 00 00 00       	mov    esi,0x2b
    6fa3:	48 8d 54 24 20       	lea    rdx,[rsp+0x20]
    6fa8:	4c 8b 44 24 08       	mov    r8,QWORD PTR [rsp+0x8]
    6fad:	ff d0                	call   rax
    6faf:	eb 2c                	jmp    6fdd <_ZN4core6result19Result$LT$T$C$E$GT$6unwrap17h6696405b0222aedaE+0x7d>
    6fb1:	0f 0b                	ud2    
    6fb3:	48 8b 44 24 10       	mov    rax,QWORD PTR [rsp+0x10]
    6fb8:	48 8b 4c 24 18       	mov    rcx,QWORD PTR [rsp+0x18]
    6fbd:	48 89 44 24 38       	mov    QWORD PTR [rsp+0x38],rax
    6fc2:	48 89 4c 24 40       	mov    QWORD PTR [rsp+0x40],rcx
    6fc7:	48 89 ca             	mov    rdx,rcx
    6fca:	48 83 c4 48          	add    rsp,0x48
    6fce:	c3                   	ret    
    6fcf:	48 8b 7c 24 28       	mov    rdi,QWORD PTR [rsp+0x28]
    6fd4:	e8 77 e0 ff ff       	call   5050 <_Unwind_Resume@plt>
    6fd9:	0f 0b                	ud2    
    6fdb:	eb f2                	jmp    6fcf <_ZN4core6result19Result$LT$T$C$E$GT$6unwrap17h6696405b0222aedaE+0x6f>
    6fdd:	0f 0b                	ud2    
    6fdf:	48 89 44 24 28       	mov    QWORD PTR [rsp+0x28],rax
    6fe4:	89 54 24 30          	mov    DWORD PTR [rsp+0x30],edx
    6fe8:	eb f1                	jmp    6fdb <_ZN4core6result19Result$LT$T$C$E$GT$6unwrap17h6696405b0222aedaE+0x7b>
    6fea:	66 0f 1f 44 00 00    	nop    WORD PTR [rax+rax*1+0x0]

0000000000006ff0 <_ZN4core6result19Result$LT$T$C$E$GT$7map_err17h3950e799bc700768E>:
    6ff0:	48 83 ec 78          	sub    rsp,0x78
    6ff4:	48 89 f8             	mov    rax,rdi
    6ff7:	48 89 74 24 30       	mov    QWORD PTR [rsp+0x30],rsi
    6ffc:	48 89 54 24 38       	mov    QWORD PTR [rsp+0x38],rdx
    7001:	48 89 4c 24 48       	mov    QWORD PTR [rsp+0x48],rcx
    7006:	c6 44 24 47 00       	mov    BYTE PTR [rsp+0x47],0x0
    700b:	c6 44 24 47 01       	mov    BYTE PTR [rsp+0x47],0x1
    7010:	48 8b 54 24 30       	mov    rdx,QWORD PTR [rsp+0x30]
    7015:	48 85 d2             	test   rdx,rdx
    7018:	41 0f 94 c0          	sete   r8b
    701c:	45 0f b6 c8          	movzx  r9d,r8b
    7020:	44 89 ca             	mov    edx,r9d
    7023:	48 89 4c 24 28       	mov    QWORD PTR [rsp+0x28],rcx
    7028:	48 89 7c 24 20       	mov    QWORD PTR [rsp+0x20],rdi
    702d:	48 89 44 24 18       	mov    QWORD PTR [rsp+0x18],rax
    7032:	75 1f                	jne    7053 <_ZN4core6result19Result$LT$T$C$E$GT$7map_err17h3950e799bc700768E+0x63>
    7034:	eb 00                	jmp    7036 <_ZN4core6result19Result$LT$T$C$E$GT$7map_err17h3950e799bc700768E+0x46>
    7036:	c6 44 24 47 00       	mov    BYTE PTR [rsp+0x47],0x0
    703b:	48 8b 7c 24 28       	mov    rdi,QWORD PTR [rsp+0x28]
    7040:	e8 8b e5 ff ff       	call   55d0 <_ZN5alloc7raw_vec11finish_grow28_$u7b$$u7b$closure$u7d$$u7d$17h98109e0c61342f5eE>
    7045:	48 89 54 24 10       	mov    QWORD PTR [rsp+0x10],rdx
    704a:	48 89 44 24 08       	mov    QWORD PTR [rsp+0x8],rax
    704f:	eb 2c                	jmp    707d <_ZN4core6result19Result$LT$T$C$E$GT$7map_err17h3950e799bc700768E+0x8d>
    7051:	0f 0b                	ud2    
    7053:	48 8b 44 24 30       	mov    rax,QWORD PTR [rsp+0x30]
    7058:	48 8b 4c 24 38       	mov    rcx,QWORD PTR [rsp+0x38]
    705d:	48 89 44 24 68       	mov    QWORD PTR [rsp+0x68],rax
    7062:	48 89 4c 24 70       	mov    QWORD PTR [rsp+0x70],rcx
    7067:	48 8b 54 24 20       	mov    rdx,QWORD PTR [rsp+0x20]
    706c:	48 89 42 08          	mov    QWORD PTR [rdx+0x8],rax
    7070:	48 89 4a 10          	mov    QWORD PTR [rdx+0x10],rcx
    7074:	48 c7 02 00 00 00 00 	mov    QWORD PTR [rdx],0x0
    707b:	eb 1e                	jmp    709b <_ZN4core6result19Result$LT$T$C$E$GT$7map_err17h3950e799bc700768E+0xab>
    707d:	48 8b 44 24 20       	mov    rax,QWORD PTR [rsp+0x20]
    7082:	48 8b 4c 24 08       	mov    rcx,QWORD PTR [rsp+0x8]
    7087:	48 89 48 08          	mov    QWORD PTR [rax+0x8],rcx
    708b:	48 8b 4c 24 10       	mov    rcx,QWORD PTR [rsp+0x10]
    7090:	48 89 48 10          	mov    QWORD PTR [rax+0x10],rcx
    7094:	48 c7 00 01 00 00 00 	mov    QWORD PTR [rax],0x1
    709b:	f6 44 24 47 01       	test   BYTE PTR [rsp+0x47],0x1
    70a0:	75 16                	jne    70b8 <_ZN4core6result19Result$LT$T$C$E$GT$7map_err17h3950e799bc700768E+0xc8>
    70a2:	48 8b 44 24 18       	mov    rax,QWORD PTR [rsp+0x18]
    70a7:	48 83 c4 78          	add    rsp,0x78
    70ab:	c3                   	ret    
    70ac:	48 8b 7c 24 58       	mov    rdi,QWORD PTR [rsp+0x58]
    70b1:	e8 9a df ff ff       	call   5050 <_Unwind_Resume@plt>
    70b6:	0f 0b                	ud2    
    70b8:	c6 44 24 47 00       	mov    BYTE PTR [rsp+0x47],0x0
    70bd:	eb e3                	jmp    70a2 <_ZN4core6result19Result$LT$T$C$E$GT$7map_err17h3950e799bc700768E+0xb2>
    70bf:	48 89 44 24 58       	mov    QWORD PTR [rsp+0x58],rax
    70c4:	89 54 24 60          	mov    DWORD PTR [rsp+0x60],edx
    70c8:	eb e2                	jmp    70ac <_ZN4core6result19Result$LT$T$C$E$GT$7map_err17h3950e799bc700768E+0xbc>
    70ca:	66 0f 1f 44 00 00    	nop    WORD PTR [rax+rax*1+0x0]

00000000000070d0 <_ZN4core6result19Result$LT$T$C$E$GT$7map_err17h877ae9a39eab5a66E>:
    70d0:	48 83 ec 68          	sub    rsp,0x68
    70d4:	48 89 f8             	mov    rax,rdi
    70d7:	48 89 74 24 20       	mov    QWORD PTR [rsp+0x20],rsi
    70dc:	48 89 54 24 28       	mov    QWORD PTR [rsp+0x28],rdx
    70e1:	c6 44 24 37 00       	mov    BYTE PTR [rsp+0x37],0x0
    70e6:	c6 44 24 37 01       	mov    BYTE PTR [rsp+0x37],0x1
    70eb:	48 8b 4c 24 28       	mov    rcx,QWORD PTR [rsp+0x28]
    70f0:	48 85 c9             	test   rcx,rcx
    70f3:	41 0f 94 c0          	sete   r8b
    70f7:	45 0f b6 c8          	movzx  r9d,r8b
    70fb:	44 89 c9             	mov    ecx,r9d
    70fe:	48 89 7c 24 18       	mov    QWORD PTR [rsp+0x18],rdi
    7103:	48 89 44 24 10       	mov    QWORD PTR [rsp+0x10],rax
    7108:	75 19                	jne    7123 <_ZN4core6result19Result$LT$T$C$E$GT$7map_err17h877ae9a39eab5a66E+0x53>
    710a:	eb 00                	jmp    710c <_ZN4core6result19Result$LT$T$C$E$GT$7map_err17h877ae9a39eab5a66E+0x3c>
    710c:	c6 44 24 37 00       	mov    BYTE PTR [rsp+0x37],0x0
    7111:	e8 ea e4 ff ff       	call   5600 <_ZN5alloc7raw_vec11finish_grow28_$u7b$$u7b$closure$u7d$$u7d$17hdfc49ae72e40448aE>
    7116:	48 89 54 24 08       	mov    QWORD PTR [rsp+0x8],rdx
    711b:	48 89 04 24          	mov    QWORD PTR [rsp],rax
    711f:	eb 2c                	jmp    714d <_ZN4core6result19Result$LT$T$C$E$GT$7map_err17h877ae9a39eab5a66E+0x7d>
    7121:	0f 0b                	ud2    
    7123:	48 8b 44 24 20       	mov    rax,QWORD PTR [rsp+0x20]
    7128:	48 8b 4c 24 28       	mov    rcx,QWORD PTR [rsp+0x28]
    712d:	48 89 44 24 58       	mov    QWORD PTR [rsp+0x58],rax
    7132:	48 89 4c 24 60       	mov    QWORD PTR [rsp+0x60],rcx
    7137:	48 8b 54 24 18       	mov    rdx,QWORD PTR [rsp+0x18]
    713c:	48 89 42 08          	mov    QWORD PTR [rdx+0x8],rax
    7140:	48 89 4a 10          	mov    QWORD PTR [rdx+0x10],rcx
    7144:	48 c7 02 00 00 00 00 	mov    QWORD PTR [rdx],0x0
    714b:	eb 1d                	jmp    716a <_ZN4core6result19Result$LT$T$C$E$GT$7map_err17h877ae9a39eab5a66E+0x9a>
    714d:	48 8b 44 24 18       	mov    rax,QWORD PTR [rsp+0x18]
    7152:	48 8b 0c 24          	mov    rcx,QWORD PTR [rsp]
    7156:	48 89 48 08          	mov    QWORD PTR [rax+0x8],rcx
    715a:	48 8b 4c 24 08       	mov    rcx,QWORD PTR [rsp+0x8]
    715f:	48 89 48 10          	mov    QWORD PTR [rax+0x10],rcx
    7163:	48 c7 00 01 00 00 00 	mov    QWORD PTR [rax],0x1
    716a:	f6 44 24 37 01       	test   BYTE PTR [rsp+0x37],0x1
    716f:	75 16                	jne    7187 <_ZN4core6result19Result$LT$T$C$E$GT$7map_err17h877ae9a39eab5a66E+0xb7>
    7171:	48 8b 44 24 10       	mov    rax,QWORD PTR [rsp+0x10]
    7176:	48 83 c4 68          	add    rsp,0x68
    717a:	c3                   	ret    
    717b:	48 8b 7c 24 48       	mov    rdi,QWORD PTR [rsp+0x48]
    7180:	e8 cb de ff ff       	call   5050 <_Unwind_Resume@plt>
    7185:	0f 0b                	ud2    
    7187:	c6 44 24 37 00       	mov    BYTE PTR [rsp+0x37],0x0
    718c:	eb e3                	jmp    7171 <_ZN4core6result19Result$LT$T$C$E$GT$7map_err17h877ae9a39eab5a66E+0xa1>
    718e:	48 89 44 24 48       	mov    QWORD PTR [rsp+0x48],rax
    7193:	89 54 24 50          	mov    DWORD PTR [rsp+0x50],edx
    7197:	eb e2                	jmp    717b <_ZN4core6result19Result$LT$T$C$E$GT$7map_err17h877ae9a39eab5a66E+0xab>
    7199:	0f 1f 80 00 00 00 00 	nop    DWORD PTR [rax+0x0]

00000000000071a0 <_ZN73_$LT$core..result..Result$LT$T$C$E$GT$$u20$as$u20$core..ops..try..Try$GT$10from_error17h190cdba8a62999e0E>:
    71a0:	48 83 ec 10          	sub    rsp,0x10
    71a4:	48 89 f8             	mov    rax,rdi
    71a7:	48 89 34 24          	mov    QWORD PTR [rsp],rsi
    71ab:	48 89 54 24 08       	mov    QWORD PTR [rsp+0x8],rdx
    71b0:	48 89 77 08          	mov    QWORD PTR [rdi+0x8],rsi
    71b4:	48 89 57 10          	mov    QWORD PTR [rdi+0x10],rdx
    71b8:	48 c7 07 01 00 00 00 	mov    QWORD PTR [rdi],0x1
    71bf:	48 83 c4 10          	add    rsp,0x10
    71c3:	c3                   	ret    
    71c4:	66 2e 0f 1f 84 00 00 	nop    WORD PTR cs:[rax+rax*1+0x0]
    71cb:	00 00 00 
    71ce:	66 90                	xchg   ax,ax

00000000000071d0 <_ZN73_$LT$core..result..Result$LT$T$C$E$GT$$u20$as$u20$core..ops..try..Try$GT$10from_error17h2349d59ce61c0086E>:
    71d0:	48 83 ec 10          	sub    rsp,0x10
    71d4:	48 89 f8             	mov    rax,rdi
    71d7:	48 89 34 24          	mov    QWORD PTR [rsp],rsi
    71db:	48 89 54 24 08       	mov    QWORD PTR [rsp+0x8],rdx
    71e0:	48 89 77 08          	mov    QWORD PTR [rdi+0x8],rsi
    71e4:	48 89 57 10          	mov    QWORD PTR [rdi+0x10],rdx
    71e8:	48 c7 07 01 00 00 00 	mov    QWORD PTR [rdi],0x1
    71ef:	48 83 c4 10          	add    rsp,0x10
    71f3:	c3                   	ret    
    71f4:	66 2e 0f 1f 84 00 00 	nop    WORD PTR cs:[rax+rax*1+0x0]
    71fb:	00 00 00 
    71fe:	66 90                	xchg   ax,ax

0000000000007200 <_ZN73_$LT$core..result..Result$LT$T$C$E$GT$$u20$as$u20$core..ops..try..Try$GT$10from_error17h28528e7040818dccE>:
    7200:	50                   	push   rax
    7201:	48 89 f8             	mov    rax,rdi
    7204:	48 c7 47 08 00 00 00 	mov    QWORD PTR [rdi+0x8],0x0
    720b:	00 
    720c:	59                   	pop    rcx
    720d:	c3                   	ret    
    720e:	66 90                	xchg   ax,ax

0000000000007210 <_ZN73_$LT$core..result..Result$LT$T$C$E$GT$$u20$as$u20$core..ops..try..Try$GT$10from_error17h691a7710dfb0296aE>:
    7210:	48 83 ec 18          	sub    rsp,0x18
    7214:	48 c7 04 24 00 00 00 	mov    QWORD PTR [rsp],0x0
    721b:	00 
    721c:	48 8b 04 24          	mov    rax,QWORD PTR [rsp]
    7220:	48 8b 54 24 08       	mov    rdx,QWORD PTR [rsp+0x8]
    7225:	48 83 c4 18          	add    rsp,0x18
    7229:	c3                   	ret    
    722a:	66 0f 1f 44 00 00    	nop    WORD PTR [rax+rax*1+0x0]

0000000000007230 <_ZN73_$LT$core..result..Result$LT$T$C$E$GT$$u20$as$u20$core..ops..try..Try$GT$10from_error17h6c26e4d72cd3e8b5E>:
    7230:	48 83 ec 18          	sub    rsp,0x18
    7234:	48 c7 44 24 08 00 00 	mov    QWORD PTR [rsp+0x8],0x0
    723b:	00 00 
    723d:	48 8b 04 24          	mov    rax,QWORD PTR [rsp]
    7241:	48 8b 54 24 08       	mov    rdx,QWORD PTR [rsp+0x8]
    7246:	48 83 c4 18          	add    rsp,0x18
    724a:	c3                   	ret    
    724b:	0f 1f 44 00 00       	nop    DWORD PTR [rax+rax*1+0x0]

0000000000007250 <_ZN73_$LT$core..result..Result$LT$T$C$E$GT$$u20$as$u20$core..ops..try..Try$GT$11into_result17h0421d145dd67077fE>:
    7250:	48 89 f8             	mov    rax,rdi
    7253:	48 8b 0e             	mov    rcx,QWORD PTR [rsi]
    7256:	48 89 0f             	mov    QWORD PTR [rdi],rcx
    7259:	48 8b 4e 08          	mov    rcx,QWORD PTR [rsi+0x8]
    725d:	48 89 4f 08          	mov    QWORD PTR [rdi+0x8],rcx
    7261:	48 8b 4e 10          	mov    rcx,QWORD PTR [rsi+0x10]
    7265:	48 89 4f 10          	mov    QWORD PTR [rdi+0x10],rcx
    7269:	c3                   	ret    
    726a:	66 0f 1f 44 00 00    	nop    WORD PTR [rax+rax*1+0x0]

0000000000007270 <_ZN73_$LT$core..result..Result$LT$T$C$E$GT$$u20$as$u20$core..ops..try..Try$GT$11into_result17h0af40dc80752e4f6E>:
    7270:	50                   	push   rax
    7271:	48 89 3c 24          	mov    QWORD PTR [rsp],rdi
    7275:	48 89 f8             	mov    rax,rdi
    7278:	59                   	pop    rcx
    7279:	c3                   	ret    
    727a:	66 0f 1f 44 00 00    	nop    WORD PTR [rax+rax*1+0x0]

0000000000007280 <_ZN73_$LT$core..result..Result$LT$T$C$E$GT$$u20$as$u20$core..ops..try..Try$GT$11into_result17h1cf0415c4842f2b8E>:
    7280:	48 83 ec 10          	sub    rsp,0x10
    7284:	48 89 3c 24          	mov    QWORD PTR [rsp],rdi
    7288:	48 89 74 24 08       	mov    QWORD PTR [rsp+0x8],rsi
    728d:	48 89 f8             	mov    rax,rdi
    7290:	48 89 f2             	mov    rdx,rsi
    7293:	48 83 c4 10          	add    rsp,0x10
    7297:	c3                   	ret    
    7298:	0f 1f 84 00 00 00 00 	nop    DWORD PTR [rax+rax*1+0x0]
    729f:	00 

00000000000072a0 <_ZN73_$LT$core..result..Result$LT$T$C$E$GT$$u20$as$u20$core..ops..try..Try$GT$11into_result17h3280a633ba267a8bE>:
    72a0:	48 89 f8             	mov    rax,rdi
    72a3:	48 8b 0e             	mov    rcx,QWORD PTR [rsi]
    72a6:	48 89 0f             	mov    QWORD PTR [rdi],rcx
    72a9:	48 8b 4e 08          	mov    rcx,QWORD PTR [rsi+0x8]
    72ad:	48 89 4f 08          	mov    QWORD PTR [rdi+0x8],rcx
    72b1:	48 8b 4e 10          	mov    rcx,QWORD PTR [rsi+0x10]
    72b5:	48 89 4f 10          	mov    QWORD PTR [rdi+0x10],rcx
    72b9:	c3                   	ret    
    72ba:	66 0f 1f 44 00 00    	nop    WORD PTR [rax+rax*1+0x0]

00000000000072c0 <_ZN73_$LT$core..result..Result$LT$T$C$E$GT$$u20$as$u20$core..ops..try..Try$GT$11into_result17h5d95b122e96ef929E>:
    72c0:	48 89 f8             	mov    rax,rdi
    72c3:	48 8b 0e             	mov    rcx,QWORD PTR [rsi]
    72c6:	48 89 0f             	mov    QWORD PTR [rdi],rcx
    72c9:	48 8b 4e 08          	mov    rcx,QWORD PTR [rsi+0x8]
    72cd:	48 89 4f 08          	mov    QWORD PTR [rdi+0x8],rcx
    72d1:	48 8b 4e 10          	mov    rcx,QWORD PTR [rsi+0x10]
    72d5:	48 89 4f 10          	mov    QWORD PTR [rdi+0x10],rcx
    72d9:	c3                   	ret    
    72da:	66 0f 1f 44 00 00    	nop    WORD PTR [rax+rax*1+0x0]

00000000000072e0 <_ZN73_$LT$core..result..Result$LT$T$C$E$GT$$u20$as$u20$core..ops..try..Try$GT$11into_result17h8e783235f244ae98E>:
    72e0:	48 83 ec 10          	sub    rsp,0x10
    72e4:	48 89 3c 24          	mov    QWORD PTR [rsp],rdi
    72e8:	48 89 74 24 08       	mov    QWORD PTR [rsp+0x8],rsi
    72ed:	48 89 f8             	mov    rax,rdi
    72f0:	48 89 f2             	mov    rdx,rsi
    72f3:	48 83 c4 10          	add    rsp,0x10
    72f7:	c3                   	ret    
    72f8:	0f 1f 84 00 00 00 00 	nop    DWORD PTR [rax+rax*1+0x0]
    72ff:	00 

0000000000007300 <_ZN73_$LT$core..result..Result$LT$T$C$E$GT$$u20$as$u20$core..ops..try..Try$GT$11into_result17hcb328854c24c6ccdE>:
    7300:	48 89 f8             	mov    rax,rdi
    7303:	48 8b 0e             	mov    rcx,QWORD PTR [rsi]
    7306:	48 89 0f             	mov    QWORD PTR [rdi],rcx
    7309:	48 8b 4e 08          	mov    rcx,QWORD PTR [rsi+0x8]
    730d:	48 89 4f 08          	mov    QWORD PTR [rdi+0x8],rcx
    7311:	48 8b 4e 10          	mov    rcx,QWORD PTR [rsi+0x10]
    7315:	48 89 4f 10          	mov    QWORD PTR [rdi+0x10],rcx
    7319:	c3                   	ret    
    731a:	66 0f 1f 44 00 00    	nop    WORD PTR [rax+rax*1+0x0]

0000000000007320 <_ZN73_$LT$core..result..Result$LT$T$C$E$GT$$u20$as$u20$core..ops..try..Try$GT$11into_result17hdac407d8c4475432E>:
    7320:	48 89 f8             	mov    rax,rdi
    7323:	48 8b 0e             	mov    rcx,QWORD PTR [rsi]
    7326:	48 89 0f             	mov    QWORD PTR [rdi],rcx
    7329:	48 8b 4e 08          	mov    rcx,QWORD PTR [rsi+0x8]
    732d:	48 89 4f 08          	mov    QWORD PTR [rdi+0x8],rcx
    7331:	48 8b 4e 10          	mov    rcx,QWORD PTR [rsi+0x10]
    7335:	48 89 4f 10          	mov    QWORD PTR [rdi+0x10],rcx
    7339:	c3                   	ret    
    733a:	66 0f 1f 44 00 00    	nop    WORD PTR [rax+rax*1+0x0]

0000000000007340 <_ZN119_$LT$core..ptr..non_null..NonNull$LT$T$GT$$u20$as$u20$core..convert..From$LT$core..ptr..unique..Unique$LT$T$GT$$GT$$GT$4from17h3fd5f2ca624949ecE>:
    7340:	48 83 ec 18          	sub    rsp,0x18
    7344:	48 89 7c 24 10       	mov    QWORD PTR [rsp+0x10],rdi
    7349:	e8 12 03 00 00       	call   7660 <_ZN4core3ptr6unique15Unique$LT$T$GT$6as_ptr17h64d4f7c77940aa81E>
    734e:	48 89 44 24 08       	mov    QWORD PTR [rsp+0x8],rax
    7353:	48 8b 7c 24 08       	mov    rdi,QWORD PTR [rsp+0x8]
    7358:	e8 43 00 00 00       	call   73a0 <_ZN4core3ptr8non_null16NonNull$LT$T$GT$13new_unchecked17hcca2a50d89b4fc2cE>
    735d:	48 89 04 24          	mov    QWORD PTR [rsp],rax
    7361:	48 8b 04 24          	mov    rax,QWORD PTR [rsp]
    7365:	48 83 c4 18          	add    rsp,0x18
    7369:	c3                   	ret    
    736a:	66 0f 1f 44 00 00    	nop    WORD PTR [rax+rax*1+0x0]

0000000000007370 <_ZN4core3ptr8non_null16NonNull$LT$T$GT$13new_unchecked17h0c40196f9a1b67c0E>:
    7370:	48 83 ec 20          	sub    rsp,0x20
    7374:	48 89 7c 24 10       	mov    QWORD PTR [rsp+0x10],rdi
    7379:	48 89 74 24 18       	mov    QWORD PTR [rsp+0x18],rsi
    737e:	48 89 3c 24          	mov    QWORD PTR [rsp],rdi
    7382:	48 89 74 24 08       	mov    QWORD PTR [rsp+0x8],rsi
    7387:	48 8b 04 24          	mov    rax,QWORD PTR [rsp]
    738b:	48 8b 54 24 08       	mov    rdx,QWORD PTR [rsp+0x8]
    7390:	48 83 c4 20          	add    rsp,0x20
    7394:	c3                   	ret    
    7395:	66 2e 0f 1f 84 00 00 	nop    WORD PTR cs:[rax+rax*1+0x0]
    739c:	00 00 00 
    739f:	90                   	nop

00000000000073a0 <_ZN4core3ptr8non_null16NonNull$LT$T$GT$13new_unchecked17hcca2a50d89b4fc2cE>:
    73a0:	48 83 ec 10          	sub    rsp,0x10
    73a4:	48 89 7c 24 08       	mov    QWORD PTR [rsp+0x8],rdi
    73a9:	48 89 3c 24          	mov    QWORD PTR [rsp],rdi
    73ad:	48 8b 04 24          	mov    rax,QWORD PTR [rsp]
    73b1:	48 83 c4 10          	add    rsp,0x10
    73b5:	c3                   	ret    
    73b6:	66 2e 0f 1f 84 00 00 	nop    WORD PTR cs:[rax+rax*1+0x0]
    73bd:	00 00 00 

00000000000073c0 <_ZN4core3ptr8non_null16NonNull$LT$T$GT$3new17hd0667006c61e6097E>:
    73c0:	48 83 ec 28          	sub    rsp,0x28
    73c4:	48 89 7c 24 20       	mov    QWORD PTR [rsp+0x20],rdi
    73c9:	48 89 7c 24 10       	mov    QWORD PTR [rsp+0x10],rdi
    73ce:	e8 ed 09 00 00       	call   7dc0 <_ZN4core3ptr7mut_ptr31_$LT$impl$u20$$BP$mut$u20$T$GT$7is_null17h26af595964ca63bbE>
    73d3:	88 44 24 0f          	mov    BYTE PTR [rsp+0xf],al
    73d7:	8a 44 24 0f          	mov    al,BYTE PTR [rsp+0xf]
    73db:	34 ff                	xor    al,0xff
    73dd:	a8 01                	test   al,0x1
    73df:	75 0b                	jne    73ec <_ZN4core3ptr8non_null16NonNull$LT$T$GT$3new17hd0667006c61e6097E+0x2c>
    73e1:	48 c7 44 24 18 00 00 	mov    QWORD PTR [rsp+0x18],0x0
    73e8:	00 00 
    73ea:	eb 17                	jmp    7403 <_ZN4core3ptr8non_null16NonNull$LT$T$GT$3new17hd0667006c61e6097E+0x43>
    73ec:	48 8b 7c 24 10       	mov    rdi,QWORD PTR [rsp+0x10]
    73f1:	e8 aa ff ff ff       	call   73a0 <_ZN4core3ptr8non_null16NonNull$LT$T$GT$13new_unchecked17hcca2a50d89b4fc2cE>
    73f6:	48 89 04 24          	mov    QWORD PTR [rsp],rax
    73fa:	48 8b 04 24          	mov    rax,QWORD PTR [rsp]
    73fe:	48 89 44 24 18       	mov    QWORD PTR [rsp+0x18],rax
    7403:	48 8b 44 24 18       	mov    rax,QWORD PTR [rsp+0x18]
    7408:	48 83 c4 28          	add    rsp,0x28
    740c:	c3                   	ret    
    740d:	0f 1f 00             	nop    DWORD PTR [rax]

0000000000007410 <_ZN4core3ptr8non_null16NonNull$LT$T$GT$4cast17h0902af581e7d28cfE>:
    7410:	48 83 ec 28          	sub    rsp,0x28
    7414:	48 89 7c 24 18       	mov    QWORD PTR [rsp+0x18],rdi
    7419:	48 89 74 24 20       	mov    QWORD PTR [rsp+0x20],rsi
    741e:	e8 2d 00 00 00       	call   7450 <_ZN4core3ptr8non_null16NonNull$LT$T$GT$6as_ptr17h6cb49cfb6d9e2e60E>
    7423:	48 89 44 24 10       	mov    QWORD PTR [rsp+0x10],rax
    7428:	48 8b 44 24 10       	mov    rax,QWORD PTR [rsp+0x10]
    742d:	48 89 c7             	mov    rdi,rax
    7430:	e8 6b ff ff ff       	call   73a0 <_ZN4core3ptr8non_null16NonNull$LT$T$GT$13new_unchecked17hcca2a50d89b4fc2cE>
    7435:	48 89 44 24 08       	mov    QWORD PTR [rsp+0x8],rax
    743a:	48 8b 44 24 08       	mov    rax,QWORD PTR [rsp+0x8]
    743f:	48 83 c4 28          	add    rsp,0x28
    7443:	c3                   	ret    
    7444:	66 2e 0f 1f 84 00 00 	nop    WORD PTR cs:[rax+rax*1+0x0]
    744b:	00 00 00 
    744e:	66 90                	xchg   ax,ax

0000000000007450 <_ZN4core3ptr8non_null16NonNull$LT$T$GT$6as_ptr17h6cb49cfb6d9e2e60E>:
    7450:	48 83 ec 10          	sub    rsp,0x10
    7454:	48 89 3c 24          	mov    QWORD PTR [rsp],rdi
    7458:	48 89 74 24 08       	mov    QWORD PTR [rsp+0x8],rsi
    745d:	48 89 f8             	mov    rax,rdi
    7460:	48 89 f2             	mov    rdx,rsi
    7463:	48 83 c4 10          	add    rsp,0x10
    7467:	c3                   	ret    
    7468:	0f 1f 84 00 00 00 00 	nop    DWORD PTR [rax+rax*1+0x0]
    746f:	00 

0000000000007470 <_ZN4core3ptr8non_null16NonNull$LT$T$GT$6as_ptr17h6cc5f652a3c8a2aeE>:
    7470:	50                   	push   rax
    7471:	48 89 3c 24          	mov    QWORD PTR [rsp],rdi
    7475:	48 89 f8             	mov    rax,rdi
    7478:	59                   	pop    rcx
    7479:	c3                   	ret    
    747a:	66 0f 1f 44 00 00    	nop    WORD PTR [rax+rax*1+0x0]

0000000000007480 <_ZN4core3ptr8non_null26NonNull$LT$$u5b$T$u5d$$GT$10as_mut_ptr17hea1373e3936488afE>:
    7480:	48 83 ec 28          	sub    rsp,0x28
    7484:	48 89 7c 24 18       	mov    QWORD PTR [rsp+0x18],rdi
    7489:	48 89 74 24 20       	mov    QWORD PTR [rsp+0x20],rsi
    748e:	e8 2d 00 00 00       	call   74c0 <_ZN4core3ptr8non_null26NonNull$LT$$u5b$T$u5d$$GT$15as_non_null_ptr17hf686fff88019fdf3E>
    7493:	48 89 44 24 10       	mov    QWORD PTR [rsp+0x10],rax
    7498:	48 8b 7c 24 10       	mov    rdi,QWORD PTR [rsp+0x10]
    749d:	e8 ce ff ff ff       	call   7470 <_ZN4core3ptr8non_null16NonNull$LT$T$GT$6as_ptr17h6cc5f652a3c8a2aeE>
    74a2:	48 89 44 24 08       	mov    QWORD PTR [rsp+0x8],rax
    74a7:	48 8b 44 24 08       	mov    rax,QWORD PTR [rsp+0x8]
    74ac:	48 83 c4 28          	add    rsp,0x28
    74b0:	c3                   	ret    
    74b1:	66 2e 0f 1f 84 00 00 	nop    WORD PTR cs:[rax+rax*1+0x0]
    74b8:	00 00 00 
    74bb:	0f 1f 44 00 00       	nop    DWORD PTR [rax+rax*1+0x0]

00000000000074c0 <_ZN4core3ptr8non_null26NonNull$LT$$u5b$T$u5d$$GT$15as_non_null_ptr17hf686fff88019fdf3E>:
    74c0:	48 83 ec 38          	sub    rsp,0x38
    74c4:	48 89 7c 24 28       	mov    QWORD PTR [rsp+0x28],rdi
    74c9:	48 89 74 24 30       	mov    QWORD PTR [rsp+0x30],rsi
    74ce:	e8 7d ff ff ff       	call   7450 <_ZN4core3ptr8non_null16NonNull$LT$T$GT$6as_ptr17h6cb49cfb6d9e2e60E>
    74d3:	48 89 44 24 20       	mov    QWORD PTR [rsp+0x20],rax
    74d8:	48 89 54 24 18       	mov    QWORD PTR [rsp+0x18],rdx
    74dd:	48 8b 7c 24 20       	mov    rdi,QWORD PTR [rsp+0x20]
    74e2:	48 8b 74 24 18       	mov    rsi,QWORD PTR [rsp+0x18]
    74e7:	e8 04 09 00 00       	call   7df0 <_ZN4core3ptr7mut_ptr41_$LT$impl$u20$$BP$mut$u20$$u5b$T$u5d$$GT$10as_mut_ptr17h591988243839ba5aE>
    74ec:	48 89 44 24 10       	mov    QWORD PTR [rsp+0x10],rax
    74f1:	48 8b 7c 24 10       	mov    rdi,QWORD PTR [rsp+0x10]
    74f6:	e8 a5 fe ff ff       	call   73a0 <_ZN4core3ptr8non_null16NonNull$LT$T$GT$13new_unchecked17hcca2a50d89b4fc2cE>
    74fb:	48 89 44 24 08       	mov    QWORD PTR [rsp+0x8],rax
    7500:	48 8b 44 24 08       	mov    rax,QWORD PTR [rsp+0x8]
    7505:	48 83 c4 38          	add    rsp,0x38
    7509:	c3                   	ret    
    750a:	66 0f 1f 44 00 00    	nop    WORD PTR [rax+rax*1+0x0]

0000000000007510 <_ZN4core3ptr8non_null26NonNull$LT$$u5b$T$u5d$$GT$20slice_from_raw_parts17hef949333e82dfd31E>:
    7510:	48 83 ec 48          	sub    rsp,0x48
    7514:	48 89 7c 24 38       	mov    QWORD PTR [rsp+0x38],rdi
    7519:	48 89 74 24 40       	mov    QWORD PTR [rsp+0x40],rsi
    751e:	48 89 74 24 30       	mov    QWORD PTR [rsp+0x30],rsi
    7523:	e8 48 ff ff ff       	call   7470 <_ZN4core3ptr8non_null16NonNull$LT$T$GT$6as_ptr17h6cc5f652a3c8a2aeE>
    7528:	48 89 44 24 28       	mov    QWORD PTR [rsp+0x28],rax
    752d:	48 8b 7c 24 28       	mov    rdi,QWORD PTR [rsp+0x28]
    7532:	48 8b 74 24 30       	mov    rsi,QWORD PTR [rsp+0x30]
    7537:	e8 e4 dd ff ff       	call   5320 <_ZN4core3ptr24slice_from_raw_parts_mut17h051ac6d7b5c7fc56E>
    753c:	48 89 44 24 20       	mov    QWORD PTR [rsp+0x20],rax
    7541:	48 89 54 24 18       	mov    QWORD PTR [rsp+0x18],rdx
    7546:	48 8b 7c 24 20       	mov    rdi,QWORD PTR [rsp+0x20]
    754b:	48 8b 74 24 18       	mov    rsi,QWORD PTR [rsp+0x18]
    7550:	e8 1b fe ff ff       	call   7370 <_ZN4core3ptr8non_null16NonNull$LT$T$GT$13new_unchecked17h0c40196f9a1b67c0E>
    7555:	48 89 44 24 10       	mov    QWORD PTR [rsp+0x10],rax
    755a:	48 89 54 24 08       	mov    QWORD PTR [rsp+0x8],rdx
    755f:	48 8b 44 24 10       	mov    rax,QWORD PTR [rsp+0x10]
    7564:	48 8b 54 24 08       	mov    rdx,QWORD PTR [rsp+0x8]
    7569:	48 83 c4 48          	add    rsp,0x48
    756d:	c3                   	ret    
    756e:	66 90                	xchg   ax,ax

0000000000007570 <_ZN4core3ptr8non_null26NonNull$LT$$u5b$T$u5d$$GT$3len17h5f44284ef81e2d82E>:
    7570:	48 83 ec 28          	sub    rsp,0x28
    7574:	48 89 7c 24 18       	mov    QWORD PTR [rsp+0x18],rdi
    7579:	48 89 74 24 20       	mov    QWORD PTR [rsp+0x20],rsi
    757e:	e8 cd fe ff ff       	call   7450 <_ZN4core3ptr8non_null16NonNull$LT$T$GT$6as_ptr17h6cb49cfb6d9e2e60E>
    7583:	48 89 44 24 10       	mov    QWORD PTR [rsp+0x10],rax
    7588:	48 89 54 24 08       	mov    QWORD PTR [rsp+0x8],rdx
    758d:	48 8b 7c 24 10       	mov    rdi,QWORD PTR [rsp+0x10]
    7592:	48 8b 74 24 08       	mov    rsi,QWORD PTR [rsp+0x8]
    7597:	e8 74 08 00 00       	call   7e10 <_ZN4core3ptr7mut_ptr41_$LT$impl$u20$$BP$mut$u20$$u5b$T$u5d$$GT$3len17hcb70da41dc8b5495E>
    759c:	48 89 04 24          	mov    QWORD PTR [rsp],rax
    75a0:	48 8b 04 24          	mov    rax,QWORD PTR [rsp]
    75a4:	48 83 c4 28          	add    rsp,0x28
    75a8:	c3                   	ret    
    75a9:	0f 1f 80 00 00 00 00 	nop    DWORD PTR [rax+0x0]

00000000000075b0 <_ZN5alloc5slice29_$LT$impl$u20$$u5b$T$u5d$$GT$6to_vec17h3dfe8afbf6dbcc06E>:
    75b0:	48 83 ec 18          	sub    rsp,0x18
    75b4:	48 89 f8             	mov    rax,rdi
    75b7:	48 89 74 24 08       	mov    QWORD PTR [rsp+0x8],rsi
    75bc:	48 89 54 24 10       	mov    QWORD PTR [rsp+0x10],rdx
    75c1:	48 89 04 24          	mov    QWORD PTR [rsp],rax
    75c5:	e8 f6 00 00 00       	call   76c0 <_ZN5alloc5slice4hack6to_vec17h1a96fc552524be4cE>
    75ca:	48 8b 04 24          	mov    rax,QWORD PTR [rsp]
    75ce:	48 83 c4 18          	add    rsp,0x18
    75d2:	c3                   	ret    
    75d3:	66 2e 0f 1f 84 00 00 	nop    WORD PTR cs:[rax+rax*1+0x0]
    75da:	00 00 00 
    75dd:	0f 1f 00             	nop    DWORD PTR [rax]

00000000000075e0 <_ZN5alloc5slice64_$LT$impl$u20$alloc..borrow..ToOwned$u20$for$u20$$u5b$T$u5d$$GT$8to_owned17he2fe3c716f66f54cE>:
    75e0:	48 83 ec 18          	sub    rsp,0x18
    75e4:	48 89 f8             	mov    rax,rdi
    75e7:	48 89 74 24 08       	mov    QWORD PTR [rsp+0x8],rsi
    75ec:	48 89 54 24 10       	mov    QWORD PTR [rsp+0x10],rdx
    75f1:	48 89 04 24          	mov    QWORD PTR [rsp],rax
    75f5:	e8 b6 ff ff ff       	call   75b0 <_ZN5alloc5slice29_$LT$impl$u20$$u5b$T$u5d$$GT$6to_vec17h3dfe8afbf6dbcc06E>
    75fa:	48 8b 04 24          	mov    rax,QWORD PTR [rsp]
    75fe:	48 83 c4 18          	add    rsp,0x18
    7602:	c3                   	ret    
    7603:	66 2e 0f 1f 84 00 00 	nop    WORD PTR cs:[rax+rax*1+0x0]
    760a:	00 00 00 
    760d:	0f 1f 00             	nop    DWORD PTR [rax]

0000000000007610 <_ZN4core3ptr6unique15Unique$LT$T$GT$13new_unchecked17h43770b75d2c7d070E>:
    7610:	48 83 ec 18          	sub    rsp,0x18
    7614:	48 89 7c 24 10       	mov    QWORD PTR [rsp+0x10],rdi
    7619:	48 89 3c 24          	mov    QWORD PTR [rsp],rdi
    761d:	48 8b 04 24          	mov    rax,QWORD PTR [rsp]
    7621:	48 83 c4 18          	add    rsp,0x18
    7625:	c3                   	ret    
    7626:	66 2e 0f 1f 84 00 00 	nop    WORD PTR cs:[rax+rax*1+0x0]
    762d:	00 00 00 

0000000000007630 <_ZN4core3ptr6unique15Unique$LT$T$GT$4cast17h1a50a09a54dee2a4E>:
    7630:	48 83 ec 18          	sub    rsp,0x18
    7634:	48 89 7c 24 10       	mov    QWORD PTR [rsp+0x10],rdi
    7639:	e8 22 00 00 00       	call   7660 <_ZN4core3ptr6unique15Unique$LT$T$GT$6as_ptr17h64d4f7c77940aa81E>
    763e:	48 89 44 24 08       	mov    QWORD PTR [rsp+0x8],rax
    7643:	48 8b 7c 24 08       	mov    rdi,QWORD PTR [rsp+0x8]
    7648:	e8 c3 ff ff ff       	call   7610 <_ZN4core3ptr6unique15Unique$LT$T$GT$13new_unchecked17h43770b75d2c7d070E>
    764d:	48 89 04 24          	mov    QWORD PTR [rsp],rax
    7651:	48 8b 04 24          	mov    rax,QWORD PTR [rsp]
    7655:	48 83 c4 18          	add    rsp,0x18
    7659:	c3                   	ret    
    765a:	66 0f 1f 44 00 00    	nop    WORD PTR [rax+rax*1+0x0]

0000000000007660 <_ZN4core3ptr6unique15Unique$LT$T$GT$6as_ptr17h64d4f7c77940aa81E>:
    7660:	50                   	push   rax
    7661:	48 89 3c 24          	mov    QWORD PTR [rsp],rdi
    7665:	48 89 f8             	mov    rax,rdi
    7668:	59                   	pop    rcx
    7669:	c3                   	ret    
    766a:	66 0f 1f 44 00 00    	nop    WORD PTR [rax+rax*1+0x0]

0000000000007670 <_ZN4core3ptr6unique15Unique$LT$T$GT$8dangling17hf0ba2d8941e73380E>:
    7670:	48 83 ec 18          	sub    rsp,0x18
    7674:	48 c7 44 24 10 01 00 	mov    QWORD PTR [rsp+0x10],0x1
    767b:	00 00 
    767d:	48 8b 7c 24 10       	mov    rdi,QWORD PTR [rsp+0x10]
    7682:	48 89 7c 24 08       	mov    QWORD PTR [rsp+0x8],rdi
    7687:	48 8b 7c 24 08       	mov    rdi,QWORD PTR [rsp+0x8]
    768c:	e8 7f ff ff ff       	call   7610 <_ZN4core3ptr6unique15Unique$LT$T$GT$13new_unchecked17h43770b75d2c7d070E>
    7691:	48 89 04 24          	mov    QWORD PTR [rsp],rax
    7695:	48 8b 04 24          	mov    rax,QWORD PTR [rsp]
    7699:	48 83 c4 18          	add    rsp,0x18
    769d:	c3                   	ret    
    769e:	66 90                	xchg   ax,ax

00000000000076a0 <_ZN50_$LT$T$u20$as$u20$core..convert..Into$LT$U$GT$$GT$4into17h156d399f63b70d5aE>:
    76a0:	48 83 ec 18          	sub    rsp,0x18
    76a4:	48 89 7c 24 10       	mov    QWORD PTR [rsp+0x10],rdi
    76a9:	e8 92 fc ff ff       	call   7340 <_ZN119_$LT$core..ptr..non_null..NonNull$LT$T$GT$$u20$as$u20$core..convert..From$LT$core..ptr..unique..Unique$LT$T$GT$$GT$$GT$4from17h3fd5f2ca624949ecE>
    76ae:	48 89 44 24 08       	mov    QWORD PTR [rsp+0x8],rax
    76b3:	48 8b 44 24 08       	mov    rax,QWORD PTR [rsp+0x8]
    76b8:	48 83 c4 18          	add    rsp,0x18
    76bc:	c3                   	ret    
    76bd:	0f 1f 00             	nop    DWORD PTR [rax]

00000000000076c0 <_ZN5alloc5slice4hack6to_vec17h1a96fc552524be4cE>:
    76c0:	48 83 ec 48          	sub    rsp,0x48
    76c4:	48 89 f8             	mov    rax,rdi
    76c7:	48 89 74 24 28       	mov    QWORD PTR [rsp+0x28],rsi
    76cc:	48 89 54 24 30       	mov    QWORD PTR [rsp+0x30],rdx
    76d1:	48 89 7c 24 20       	mov    QWORD PTR [rsp+0x20],rdi
    76d6:	48 89 f7             	mov    rdi,rsi
    76d9:	48 89 74 24 18       	mov    QWORD PTR [rsp+0x18],rsi
    76de:	48 89 d6             	mov    rsi,rdx
    76e1:	48 89 54 24 10       	mov    QWORD PTR [rsp+0x10],rdx
    76e6:	48 89 44 24 08       	mov    QWORD PTR [rsp+0x8],rax
    76eb:	e8 50 07 00 00       	call   7e40 <_ZN4core5slice29_$LT$impl$u20$$u5b$T$u5d$$GT$3len17hc3ac95fe3708f4acE>
    76f0:	48 89 04 24          	mov    QWORD PTR [rsp],rax
    76f4:	eb 0c                	jmp    7702 <_ZN5alloc5slice4hack6to_vec17h1a96fc552524be4cE+0x42>
    76f6:	48 8b 7c 24 38       	mov    rdi,QWORD PTR [rsp+0x38]
    76fb:	e8 50 d9 ff ff       	call   5050 <_Unwind_Resume@plt>
    7700:	0f 0b                	ud2    
    7702:	48 8b 7c 24 20       	mov    rdi,QWORD PTR [rsp+0x20]
    7707:	48 8b 34 24          	mov    rsi,QWORD PTR [rsp]
    770b:	e8 00 04 00 00       	call   7b10 <_ZN5alloc3vec12Vec$LT$T$GT$13with_capacity17h46a47a272da47eccE>
    7710:	48 8b 7c 24 20       	mov    rdi,QWORD PTR [rsp+0x20]
    7715:	48 8b 74 24 18       	mov    rsi,QWORD PTR [rsp+0x18]
    771a:	48 8b 54 24 10       	mov    rdx,QWORD PTR [rsp+0x10]
    771f:	e8 ec 04 00 00       	call   7c10 <_ZN5alloc3vec12Vec$LT$T$GT$17extend_from_slice17h151a7ee9b4a570ecE>
    7724:	eb 00                	jmp    7726 <_ZN5alloc5slice4hack6to_vec17h1a96fc552524be4cE+0x66>
    7726:	48 8b 44 24 08       	mov    rax,QWORD PTR [rsp+0x8]
    772b:	48 83 c4 48          	add    rsp,0x48
    772f:	c3                   	ret    
    7730:	48 8b 7c 24 20       	mov    rdi,QWORD PTR [rsp+0x20]
    7735:	e8 06 0e 00 00       	call   8540 <_ZN4core3ptr13drop_in_place17h4070cce8e82b50eaE>
    773a:	eb ba                	jmp    76f6 <_ZN5alloc5slice4hack6to_vec17h1a96fc552524be4cE+0x36>
    773c:	48 89 44 24 38       	mov    QWORD PTR [rsp+0x38],rax
    7741:	89 54 24 40          	mov    DWORD PTR [rsp+0x40],edx
    7745:	eb e9                	jmp    7730 <_ZN5alloc5slice4hack6to_vec17h1a96fc552524be4cE+0x70>
    7747:	66 0f 1f 84 00 00 00 	nop    WORD PTR [rax+rax*1+0x0]
    774e:	00 00 

0000000000007750 <_ZN4core3num23_$LT$impl$u20$usize$GT$10count_ones17ha2026ead7b7e5e76E>:
    7750:	48 83 ec 18          	sub    rsp,0x18
    7754:	48 89 7c 24 08       	mov    QWORD PTR [rsp+0x8],rdi
    7759:	48 89 f8             	mov    rax,rdi
    775c:	48 d1 e8             	shr    rax,1
    775f:	48 b9 55 55 55 55 55 	movabs rcx,0x5555555555555555
    7766:	55 55 55 
    7769:	48 21 c8             	and    rax,rcx
    776c:	48 29 c7             	sub    rdi,rax
    776f:	48 b8 33 33 33 33 33 	movabs rax,0x3333333333333333
    7776:	33 33 33 
    7779:	48 89 f9             	mov    rcx,rdi
    777c:	48 21 c1             	and    rcx,rax
    777f:	48 c1 ef 02          	shr    rdi,0x2
    7783:	48 21 c7             	and    rdi,rax
    7786:	48 01 f9             	add    rcx,rdi
    7789:	48 89 c8             	mov    rax,rcx
    778c:	48 c1 e8 04          	shr    rax,0x4
    7790:	48 01 c1             	add    rcx,rax
    7793:	48 b8 0f 0f 0f 0f 0f 	movabs rax,0xf0f0f0f0f0f0f0f
    779a:	0f 0f 0f 
    779d:	48 21 c1             	and    rcx,rax
    77a0:	48 b8 01 01 01 01 01 	movabs rax,0x101010101010101
    77a7:	01 01 01 
    77aa:	48 0f af c8          	imul   rcx,rax
    77ae:	48 c1 e9 38          	shr    rcx,0x38
    77b2:	48 89 4c 24 10       	mov    QWORD PTR [rsp+0x10],rcx
    77b7:	48 8b 44 24 10       	mov    rax,QWORD PTR [rsp+0x10]
    77bc:	48 89 04 24          	mov    QWORD PTR [rsp],rax
    77c0:	48 8b 04 24          	mov    rax,QWORD PTR [rsp]
    77c4:	89 c1                	mov    ecx,eax
    77c6:	89 c8                	mov    eax,ecx
    77c8:	48 83 c4 18          	add    rsp,0x18
    77cc:	c3                   	ret    
    77cd:	0f 1f 00             	nop    DWORD PTR [rax]

00000000000077d0 <_ZN4core3num23_$LT$impl$u20$usize$GT$11checked_add17h7fa25ec84b481a2bE>:
    77d0:	48 83 ec 48          	sub    rsp,0x48
    77d4:	48 89 7c 24 28       	mov    QWORD PTR [rsp+0x28],rdi
    77d9:	48 89 74 24 30       	mov    QWORD PTR [rsp+0x30],rsi
    77de:	e8 7d 01 00 00       	call   7960 <_ZN4core3num23_$LT$impl$u20$usize$GT$15overflowing_add17h3aed07257ec97be9E>
    77e3:	48 89 44 24 10       	mov    QWORD PTR [rsp+0x10],rax
    77e8:	88 54 24 0f          	mov    BYTE PTR [rsp+0xf],dl
    77ec:	48 8b 44 24 10       	mov    rax,QWORD PTR [rsp+0x10]
    77f1:	48 89 44 24 38       	mov    QWORD PTR [rsp+0x38],rax
    77f6:	8a 4c 24 0f          	mov    cl,BYTE PTR [rsp+0xf]
    77fa:	80 e1 01             	and    cl,0x1
    77fd:	88 4c 24 46          	mov    BYTE PTR [rsp+0x46],cl
    7801:	8a 4c 24 0f          	mov    cl,BYTE PTR [rsp+0xf]
    7805:	80 e1 01             	and    cl,0x1
    7808:	88 4c 24 47          	mov    BYTE PTR [rsp+0x47],cl
    780c:	8a 4c 24 47          	mov    cl,BYTE PTR [rsp+0x47]
    7810:	88 4c 24 0e          	mov    BYTE PTR [rsp+0xe],cl
    7814:	8a 44 24 0e          	mov    al,BYTE PTR [rsp+0xe]
    7818:	a8 01                	test   al,0x1
    781a:	75 17                	jne    7833 <_ZN4core3num23_$LT$impl$u20$usize$GT$11checked_add17h7fa25ec84b481a2bE+0x63>
    781c:	eb 00                	jmp    781e <_ZN4core3num23_$LT$impl$u20$usize$GT$11checked_add17h7fa25ec84b481a2bE+0x4e>
    781e:	48 8b 44 24 10       	mov    rax,QWORD PTR [rsp+0x10]
    7823:	48 89 44 24 20       	mov    QWORD PTR [rsp+0x20],rax
    7828:	48 c7 44 24 18 01 00 	mov    QWORD PTR [rsp+0x18],0x1
    782f:	00 00 
    7831:	eb 09                	jmp    783c <_ZN4core3num23_$LT$impl$u20$usize$GT$11checked_add17h7fa25ec84b481a2bE+0x6c>
    7833:	48 c7 44 24 18 00 00 	mov    QWORD PTR [rsp+0x18],0x0
    783a:	00 00 
    783c:	48 8b 44 24 18       	mov    rax,QWORD PTR [rsp+0x18]
    7841:	48 8b 54 24 20       	mov    rdx,QWORD PTR [rsp+0x20]
    7846:	48 83 c4 48          	add    rsp,0x48
    784a:	c3                   	ret    
    784b:	0f 1f 44 00 00       	nop    DWORD PTR [rax+rax*1+0x0]

0000000000007850 <_ZN4core3num23_$LT$impl$u20$usize$GT$11checked_mul17ha4483cbd3b2a2aabE>:
    7850:	48 83 ec 48          	sub    rsp,0x48
    7854:	48 89 7c 24 28       	mov    QWORD PTR [rsp+0x28],rdi
    7859:	48 89 74 24 30       	mov    QWORD PTR [rsp+0x30],rsi
    785e:	e8 5d 01 00 00       	call   79c0 <_ZN4core3num23_$LT$impl$u20$usize$GT$15overflowing_mul17h06cf86c141c78e2fE>
    7863:	48 89 44 24 10       	mov    QWORD PTR [rsp+0x10],rax
    7868:	88 54 24 0f          	mov    BYTE PTR [rsp+0xf],dl
    786c:	48 8b 44 24 10       	mov    rax,QWORD PTR [rsp+0x10]
    7871:	48 89 44 24 38       	mov    QWORD PTR [rsp+0x38],rax
    7876:	8a 4c 24 0f          	mov    cl,BYTE PTR [rsp+0xf]
    787a:	80 e1 01             	and    cl,0x1
    787d:	88 4c 24 46          	mov    BYTE PTR [rsp+0x46],cl
    7881:	8a 4c 24 0f          	mov    cl,BYTE PTR [rsp+0xf]
    7885:	80 e1 01             	and    cl,0x1
    7888:	88 4c 24 47          	mov    BYTE PTR [rsp+0x47],cl
    788c:	8a 4c 24 47          	mov    cl,BYTE PTR [rsp+0x47]
    7890:	88 4c 24 0e          	mov    BYTE PTR [rsp+0xe],cl
    7894:	8a 44 24 0e          	mov    al,BYTE PTR [rsp+0xe]
    7898:	a8 01                	test   al,0x1
    789a:	75 17                	jne    78b3 <_ZN4core3num23_$LT$impl$u20$usize$GT$11checked_mul17ha4483cbd3b2a2aabE+0x63>
    789c:	eb 00                	jmp    789e <_ZN4core3num23_$LT$impl$u20$usize$GT$11checked_mul17ha4483cbd3b2a2aabE+0x4e>
    789e:	48 8b 44 24 10       	mov    rax,QWORD PTR [rsp+0x10]
    78a3:	48 89 44 24 20       	mov    QWORD PTR [rsp+0x20],rax
    78a8:	48 c7 44 24 18 01 00 	mov    QWORD PTR [rsp+0x18],0x1
    78af:	00 00 
    78b1:	eb 09                	jmp    78bc <_ZN4core3num23_$LT$impl$u20$usize$GT$11checked_mul17ha4483cbd3b2a2aabE+0x6c>
    78b3:	48 c7 44 24 18 00 00 	mov    QWORD PTR [rsp+0x18],0x0
    78ba:	00 00 
    78bc:	48 8b 44 24 18       	mov    rax,QWORD PTR [rsp+0x18]
    78c1:	48 8b 54 24 20       	mov    rdx,QWORD PTR [rsp+0x20]
    78c6:	48 83 c4 48          	add    rsp,0x48
    78ca:	c3                   	ret    
    78cb:	0f 1f 44 00 00       	nop    DWORD PTR [rax+rax*1+0x0]

00000000000078d0 <_ZN4core3num23_$LT$impl$u20$usize$GT$12wrapping_add17h81bca7e4eaa007deE>:
    78d0:	48 83 ec 20          	sub    rsp,0x20
    78d4:	48 89 7c 24 08       	mov    QWORD PTR [rsp+0x8],rdi
    78d9:	48 89 74 24 10       	mov    QWORD PTR [rsp+0x10],rsi
    78de:	48 01 f7             	add    rdi,rsi
    78e1:	48 89 7c 24 18       	mov    QWORD PTR [rsp+0x18],rdi
    78e6:	48 8b 44 24 18       	mov    rax,QWORD PTR [rsp+0x18]
    78eb:	48 89 04 24          	mov    QWORD PTR [rsp],rax
    78ef:	48 8b 04 24          	mov    rax,QWORD PTR [rsp]
    78f3:	48 83 c4 20          	add    rsp,0x20
    78f7:	c3                   	ret    
    78f8:	0f 1f 84 00 00 00 00 	nop    DWORD PTR [rax+rax*1+0x0]
    78ff:	00 

0000000000007900 <_ZN4core3num23_$LT$impl$u20$usize$GT$12wrapping_sub17h024ee33beffc4823E>:
    7900:	48 83 ec 20          	sub    rsp,0x20
    7904:	48 89 7c 24 08       	mov    QWORD PTR [rsp+0x8],rdi
    7909:	48 89 74 24 10       	mov    QWORD PTR [rsp+0x10],rsi
    790e:	48 29 f7             	sub    rdi,rsi
    7911:	48 89 7c 24 18       	mov    QWORD PTR [rsp+0x18],rdi
    7916:	48 8b 44 24 18       	mov    rax,QWORD PTR [rsp+0x18]
    791b:	48 89 04 24          	mov    QWORD PTR [rsp],rax
    791f:	48 8b 04 24          	mov    rax,QWORD PTR [rsp]
    7923:	48 83 c4 20          	add    rsp,0x20
    7927:	c3                   	ret    
    7928:	0f 1f 84 00 00 00 00 	nop    DWORD PTR [rax+rax*1+0x0]
    792f:	00 

0000000000007930 <_ZN4core3num23_$LT$impl$u20$usize$GT$15is_power_of_two17he9ad43ebe7251154E>:
    7930:	48 83 ec 18          	sub    rsp,0x18
    7934:	48 89 7c 24 10       	mov    QWORD PTR [rsp+0x10],rdi
    7939:	e8 12 fe ff ff       	call   7750 <_ZN4core3num23_$LT$impl$u20$usize$GT$10count_ones17ha2026ead7b7e5e76E>
    793e:	89 44 24 0c          	mov    DWORD PTR [rsp+0xc],eax
    7942:	8b 44 24 0c          	mov    eax,DWORD PTR [rsp+0xc]
    7946:	83 f8 01             	cmp    eax,0x1
    7949:	0f 94 c1             	sete   cl
    794c:	80 e1 01             	and    cl,0x1
    794f:	0f b6 c1             	movzx  eax,cl
    7952:	48 83 c4 18          	add    rsp,0x18
    7956:	c3                   	ret    
    7957:	66 0f 1f 84 00 00 00 	nop    WORD PTR [rax+rax*1+0x0]
    795e:	00 00 

0000000000007960 <_ZN4core3num23_$LT$impl$u20$usize$GT$15overflowing_add17h3aed07257ec97be9E>:
    7960:	48 83 ec 50          	sub    rsp,0x50
    7964:	48 89 7c 24 20       	mov    QWORD PTR [rsp+0x20],rdi
    7969:	48 89 74 24 28       	mov    QWORD PTR [rsp+0x28],rsi
    796e:	48 01 f7             	add    rdi,rsi
    7971:	0f 92 c0             	setb   al
    7974:	24 01                	and    al,0x1
    7976:	48 89 7c 24 30       	mov    QWORD PTR [rsp+0x30],rdi
    797b:	88 44 24 38          	mov    BYTE PTR [rsp+0x38],al
    797f:	48 8b 4c 24 30       	mov    rcx,QWORD PTR [rsp+0x30]
    7984:	8a 44 24 38          	mov    al,BYTE PTR [rsp+0x38]
    7988:	48 89 4c 24 08       	mov    QWORD PTR [rsp+0x8],rcx
    798d:	88 44 24 07          	mov    BYTE PTR [rsp+0x7],al
    7991:	48 8b 44 24 08       	mov    rax,QWORD PTR [rsp+0x8]
    7996:	48 89 44 24 40       	mov    QWORD PTR [rsp+0x40],rax
    799b:	8a 4c 24 07          	mov    cl,BYTE PTR [rsp+0x7]
    799f:	80 e1 01             	and    cl,0x1
    79a2:	88 4c 24 4f          	mov    BYTE PTR [rsp+0x4f],cl
    79a6:	48 89 44 24 10       	mov    QWORD PTR [rsp+0x10],rax
    79ab:	88 4c 24 18          	mov    BYTE PTR [rsp+0x18],cl
    79af:	48 8b 44 24 10       	mov    rax,QWORD PTR [rsp+0x10]
    79b4:	8a 54 24 18          	mov    dl,BYTE PTR [rsp+0x18]
    79b8:	48 83 c4 50          	add    rsp,0x50
    79bc:	c3                   	ret    
    79bd:	0f 1f 00             	nop    DWORD PTR [rax]

00000000000079c0 <_ZN4core3num23_$LT$impl$u20$usize$GT$15overflowing_mul17h06cf86c141c78e2fE>:
    79c0:	48 83 ec 50          	sub    rsp,0x50
    79c4:	48 89 7c 24 20       	mov    QWORD PTR [rsp+0x20],rdi
    79c9:	48 89 74 24 28       	mov    QWORD PTR [rsp+0x28],rsi
    79ce:	48 89 f8             	mov    rax,rdi
    79d1:	48 f7 e6             	mul    rsi
    79d4:	0f 90 c1             	seto   cl
    79d7:	80 e1 01             	and    cl,0x1
    79da:	48 89 44 24 30       	mov    QWORD PTR [rsp+0x30],rax
    79df:	88 4c 24 38          	mov    BYTE PTR [rsp+0x38],cl
    79e3:	48 8b 44 24 30       	mov    rax,QWORD PTR [rsp+0x30]
    79e8:	8a 4c 24 38          	mov    cl,BYTE PTR [rsp+0x38]
    79ec:	48 89 44 24 08       	mov    QWORD PTR [rsp+0x8],rax
    79f1:	88 4c 24 07          	mov    BYTE PTR [rsp+0x7],cl
    79f5:	48 8b 44 24 08       	mov    rax,QWORD PTR [rsp+0x8]
    79fa:	48 89 44 24 40       	mov    QWORD PTR [rsp+0x40],rax
    79ff:	8a 4c 24 07          	mov    cl,BYTE PTR [rsp+0x7]
    7a03:	80 e1 01             	and    cl,0x1
    7a06:	88 4c 24 4f          	mov    BYTE PTR [rsp+0x4f],cl
    7a0a:	48 89 44 24 10       	mov    QWORD PTR [rsp+0x10],rax
    7a0f:	88 4c 24 18          	mov    BYTE PTR [rsp+0x18],cl
    7a13:	48 8b 44 24 10       	mov    rax,QWORD PTR [rsp+0x10]
    7a18:	8a 54 24 18          	mov    dl,BYTE PTR [rsp+0x18]
    7a1c:	48 83 c4 50          	add    rsp,0x50
    7a20:	c3                   	ret    
    7a21:	66 2e 0f 1f 84 00 00 	nop    WORD PTR cs:[rax+rax*1+0x0]
    7a28:	00 00 00 
    7a2b:	0f 1f 44 00 00       	nop    DWORD PTR [rax+rax*1+0x0]

0000000000007a30 <_ZN4core3cmp5impls50_$LT$impl$u20$core..cmp..Ord$u20$for$u20$usize$GT$3cmp17h7857666d138f537fE>:
    7a30:	48 83 ec 28          	sub    rsp,0x28
    7a34:	48 89 7c 24 18       	mov    QWORD PTR [rsp+0x18],rdi
    7a39:	48 89 74 24 20       	mov    QWORD PTR [rsp+0x20],rsi
    7a3e:	48 8b 07             	mov    rax,QWORD PTR [rdi]
    7a41:	48 3b 06             	cmp    rax,QWORD PTR [rsi]
    7a44:	48 89 7c 24 08       	mov    QWORD PTR [rsp+0x8],rdi
    7a49:	48 89 34 24          	mov    QWORD PTR [rsp],rsi
    7a4d:	72 13                	jb     7a62 <_ZN4core3cmp5impls50_$LT$impl$u20$core..cmp..Ord$u20$for$u20$usize$GT$3cmp17h7857666d138f537fE+0x32>
    7a4f:	48 8b 44 24 08       	mov    rax,QWORD PTR [rsp+0x8]
    7a54:	48 8b 08             	mov    rcx,QWORD PTR [rax]
    7a57:	48 8b 14 24          	mov    rdx,QWORD PTR [rsp]
    7a5b:	48 3b 0a             	cmp    rcx,QWORD PTR [rdx]
    7a5e:	74 10                	je     7a70 <_ZN4core3cmp5impls50_$LT$impl$u20$core..cmp..Ord$u20$for$u20$usize$GT$3cmp17h7857666d138f537fE+0x40>
    7a60:	eb 07                	jmp    7a69 <_ZN4core3cmp5impls50_$LT$impl$u20$core..cmp..Ord$u20$for$u20$usize$GT$3cmp17h7857666d138f537fE+0x39>
    7a62:	c6 44 24 17 ff       	mov    BYTE PTR [rsp+0x17],0xff
    7a67:	eb 0e                	jmp    7a77 <_ZN4core3cmp5impls50_$LT$impl$u20$core..cmp..Ord$u20$for$u20$usize$GT$3cmp17h7857666d138f537fE+0x47>
    7a69:	c6 44 24 17 01       	mov    BYTE PTR [rsp+0x17],0x1
    7a6e:	eb 05                	jmp    7a75 <_ZN4core3cmp5impls50_$LT$impl$u20$core..cmp..Ord$u20$for$u20$usize$GT$3cmp17h7857666d138f537fE+0x45>
    7a70:	c6 44 24 17 00       	mov    BYTE PTR [rsp+0x17],0x0
    7a75:	eb 00                	jmp    7a77 <_ZN4core3cmp5impls50_$LT$impl$u20$core..cmp..Ord$u20$for$u20$usize$GT$3cmp17h7857666d138f537fE+0x47>
    7a77:	8a 44 24 17          	mov    al,BYTE PTR [rsp+0x17]
    7a7b:	48 83 c4 28          	add    rsp,0x28
    7a7f:	c3                   	ret    

0000000000007a80 <_ZN115_$LT$alloc..vec..Vec$LT$T$GT$$u20$as$u20$alloc..vec..SpecExtend$LT$$RF$T$C$core..slice..iter..Iter$LT$T$GT$$GT$$GT$11spec_extend17hb59e53ddbf684274E>:
    7a80:	48 83 ec 48          	sub    rsp,0x48
    7a84:	48 89 74 24 20       	mov    QWORD PTR [rsp+0x20],rsi
    7a89:	48 89 54 24 28       	mov    QWORD PTR [rsp+0x28],rdx
    7a8e:	48 89 7c 24 30       	mov    QWORD PTR [rsp+0x30],rdi
    7a93:	48 8d 44 24 20       	lea    rax,[rsp+0x20]
    7a98:	48 89 7c 24 18       	mov    QWORD PTR [rsp+0x18],rdi
    7a9d:	48 89 c7             	mov    rdi,rax
    7aa0:	e8 cb 08 00 00       	call   8370 <_ZN4core5slice4iter13Iter$LT$T$GT$8as_slice17h54fff46bea518674E>
    7aa5:	48 89 44 24 38       	mov    QWORD PTR [rsp+0x38],rax
    7aaa:	48 89 54 24 40       	mov    QWORD PTR [rsp+0x40],rdx
    7aaf:	48 89 44 24 10       	mov    QWORD PTR [rsp+0x10],rax
    7ab4:	48 89 54 24 08       	mov    QWORD PTR [rsp+0x8],rdx
    7ab9:	48 8b 7c 24 18       	mov    rdi,QWORD PTR [rsp+0x18]
    7abe:	48 8b 74 24 10       	mov    rsi,QWORD PTR [rsp+0x10]
    7ac3:	48 8b 54 24 08       	mov    rdx,QWORD PTR [rsp+0x8]
    7ac8:	e8 93 00 00 00       	call   7b60 <_ZN5alloc3vec12Vec$LT$T$GT$15append_elements17h885fb5e26f00b045E>
    7acd:	48 83 c4 48          	add    rsp,0x48
    7ad1:	c3                   	ret    
    7ad2:	66 2e 0f 1f 84 00 00 	nop    WORD PTR cs:[rax+rax*1+0x0]
    7ad9:	00 00 00 
    7adc:	0f 1f 40 00          	nop    DWORD PTR [rax+0x0]

0000000000007ae0 <_ZN5alloc3vec12Vec$LT$T$GT$10as_mut_ptr17h36922a94c3e3941bE>:
    7ae0:	48 83 ec 18          	sub    rsp,0x18
    7ae4:	48 89 7c 24 08       	mov    QWORD PTR [rsp+0x8],rdi
    7ae9:	e8 32 e5 ff ff       	call   6020 <_ZN5alloc7raw_vec19RawVec$LT$T$C$A$GT$3ptr17head1549401552cbfE>
    7aee:	48 89 44 24 10       	mov    QWORD PTR [rsp+0x10],rax
    7af3:	48 89 04 24          	mov    QWORD PTR [rsp],rax
    7af7:	48 8b 3c 24          	mov    rdi,QWORD PTR [rsp]
    7afb:	e8 c0 02 00 00       	call   7dc0 <_ZN4core3ptr7mut_ptr31_$LT$impl$u20$$BP$mut$u20$T$GT$7is_null17h26af595964ca63bbE>
    7b00:	48 8b 04 24          	mov    rax,QWORD PTR [rsp]
    7b04:	48 83 c4 18          	add    rsp,0x18
    7b08:	c3                   	ret    
    7b09:	0f 1f 80 00 00 00 00 	nop    DWORD PTR [rax+0x0]

0000000000007b10 <_ZN5alloc3vec12Vec$LT$T$GT$13with_capacity17h46a47a272da47eccE>:
    7b10:	48 83 ec 28          	sub    rsp,0x28
    7b14:	48 89 f8             	mov    rax,rdi
    7b17:	48 89 74 24 20       	mov    QWORD PTR [rsp+0x20],rsi
    7b1c:	48 89 7c 24 18       	mov    QWORD PTR [rsp+0x18],rdi
    7b21:	48 89 f7             	mov    rdi,rsi
    7b24:	48 89 44 24 10       	mov    QWORD PTR [rsp+0x10],rax
    7b29:	e8 f2 da ff ff       	call   5620 <_ZN5alloc7raw_vec15RawVec$LT$T$GT$13with_capacity17h35069c2023b0d62fE>
    7b2e:	48 89 44 24 08       	mov    QWORD PTR [rsp+0x8],rax
    7b33:	48 89 14 24          	mov    QWORD PTR [rsp],rdx
    7b37:	48 8b 44 24 18       	mov    rax,QWORD PTR [rsp+0x18]
    7b3c:	48 8b 4c 24 08       	mov    rcx,QWORD PTR [rsp+0x8]
    7b41:	48 89 08             	mov    QWORD PTR [rax],rcx
    7b44:	48 8b 14 24          	mov    rdx,QWORD PTR [rsp]
    7b48:	48 89 50 08          	mov    QWORD PTR [rax+0x8],rdx
    7b4c:	48 c7 40 10 00 00 00 	mov    QWORD PTR [rax+0x10],0x0
    7b53:	00 
    7b54:	48 8b 44 24 10       	mov    rax,QWORD PTR [rsp+0x10]
    7b59:	48 83 c4 28          	add    rsp,0x28
    7b5d:	c3                   	ret    
    7b5e:	66 90                	xchg   ax,ax

0000000000007b60 <_ZN5alloc3vec12Vec$LT$T$GT$15append_elements17h885fb5e26f00b045E>:
    7b60:	48 83 ec 68          	sub    rsp,0x68
    7b64:	48 89 7c 24 40       	mov    QWORD PTR [rsp+0x40],rdi
    7b69:	48 89 74 24 48       	mov    QWORD PTR [rsp+0x48],rsi
    7b6e:	48 89 54 24 50       	mov    QWORD PTR [rsp+0x50],rdx
    7b73:	48 89 7c 24 38       	mov    QWORD PTR [rsp+0x38],rdi
    7b78:	48 89 f7             	mov    rdi,rsi
    7b7b:	48 89 74 24 30       	mov    QWORD PTR [rsp+0x30],rsi
    7b80:	48 89 d6             	mov    rsi,rdx
    7b83:	e8 b8 02 00 00       	call   7e40 <_ZN4core5slice29_$LT$impl$u20$$u5b$T$u5d$$GT$3len17hc3ac95fe3708f4acE>
    7b88:	48 89 44 24 58       	mov    QWORD PTR [rsp+0x58],rax
    7b8d:	48 89 44 24 28       	mov    QWORD PTR [rsp+0x28],rax
    7b92:	48 8b 7c 24 38       	mov    rdi,QWORD PTR [rsp+0x38]
    7b97:	48 8b 74 24 28       	mov    rsi,QWORD PTR [rsp+0x28]
    7b9c:	e8 ff 00 00 00       	call   7ca0 <_ZN5alloc3vec12Vec$LT$T$GT$7reserve17hd6f12bbe6132bc43E>
    7ba1:	48 8b 7c 24 38       	mov    rdi,QWORD PTR [rsp+0x38]
    7ba6:	e8 b5 00 00 00       	call   7c60 <_ZN5alloc3vec12Vec$LT$T$GT$3len17h26c3d498c04834c4E>
    7bab:	48 89 44 24 60       	mov    QWORD PTR [rsp+0x60],rax
    7bb0:	48 89 44 24 20       	mov    QWORD PTR [rsp+0x20],rax
    7bb5:	48 8b 44 24 30       	mov    rax,QWORD PTR [rsp+0x30]
    7bba:	48 8b 7c 24 38       	mov    rdi,QWORD PTR [rsp+0x38]
    7bbf:	48 89 44 24 18       	mov    QWORD PTR [rsp+0x18],rax
    7bc4:	e8 17 ff ff ff       	call   7ae0 <_ZN5alloc3vec12Vec$LT$T$GT$10as_mut_ptr17h36922a94c3e3941bE>
    7bc9:	48 89 44 24 10       	mov    QWORD PTR [rsp+0x10],rax
    7bce:	48 8b 7c 24 10       	mov    rdi,QWORD PTR [rsp+0x10]
    7bd3:	48 8b 74 24 20       	mov    rsi,QWORD PTR [rsp+0x20]
    7bd8:	e8 93 01 00 00       	call   7d70 <_ZN4core3ptr7mut_ptr31_$LT$impl$u20$$BP$mut$u20$T$GT$3add17h4a18704eb0b729c4E>
    7bdd:	48 89 44 24 08       	mov    QWORD PTR [rsp+0x8],rax
    7be2:	48 8b 7c 24 18       	mov    rdi,QWORD PTR [rsp+0x18]
    7be7:	48 8b 74 24 08       	mov    rsi,QWORD PTR [rsp+0x8]
    7bec:	48 8b 54 24 28       	mov    rdx,QWORD PTR [rsp+0x28]
    7bf1:	e8 fa e7 ff ff       	call   63f0 <_ZN4core10intrinsics19copy_nonoverlapping17h8595eb14b6e6c582E>
    7bf6:	48 8b 44 24 28       	mov    rax,QWORD PTR [rsp+0x28]
    7bfb:	48 8b 4c 24 38       	mov    rcx,QWORD PTR [rsp+0x38]
    7c00:	48 03 41 10          	add    rax,QWORD PTR [rcx+0x10]
    7c04:	48 89 41 10          	mov    QWORD PTR [rcx+0x10],rax
    7c08:	48 83 c4 68          	add    rsp,0x68
    7c0c:	c3                   	ret    
    7c0d:	0f 1f 00             	nop    DWORD PTR [rax]

0000000000007c10 <_ZN5alloc3vec12Vec$LT$T$GT$17extend_from_slice17h151a7ee9b4a570ecE>:
    7c10:	48 83 ec 38          	sub    rsp,0x38
    7c14:	48 89 7c 24 20       	mov    QWORD PTR [rsp+0x20],rdi
    7c19:	48 89 74 24 28       	mov    QWORD PTR [rsp+0x28],rsi
    7c1e:	48 89 54 24 30       	mov    QWORD PTR [rsp+0x30],rdx
    7c23:	48 89 7c 24 18       	mov    QWORD PTR [rsp+0x18],rdi
    7c28:	48 89 f7             	mov    rdi,rsi
    7c2b:	48 89 d6             	mov    rsi,rdx
    7c2e:	e8 3d 02 00 00       	call   7e70 <_ZN4core5slice29_$LT$impl$u20$$u5b$T$u5d$$GT$4iter17ha06e93da5c62638bE>
    7c33:	48 89 44 24 10       	mov    QWORD PTR [rsp+0x10],rax
    7c38:	48 89 54 24 08       	mov    QWORD PTR [rsp+0x8],rdx
    7c3d:	48 8b 7c 24 18       	mov    rdi,QWORD PTR [rsp+0x18]
    7c42:	48 8b 74 24 10       	mov    rsi,QWORD PTR [rsp+0x10]
    7c47:	48 8b 54 24 08       	mov    rdx,QWORD PTR [rsp+0x8]
    7c4c:	e8 2f fe ff ff       	call   7a80 <_ZN115_$LT$alloc..vec..Vec$LT$T$GT$$u20$as$u20$alloc..vec..SpecExtend$LT$$RF$T$C$core..slice..iter..Iter$LT$T$GT$$GT$$GT$11spec_extend17hb59e53ddbf684274E>
    7c51:	48 83 c4 38          	add    rsp,0x38
    7c55:	c3                   	ret    
    7c56:	66 2e 0f 1f 84 00 00 	nop    WORD PTR cs:[rax+rax*1+0x0]
    7c5d:	00 00 00 

0000000000007c60 <_ZN5alloc3vec12Vec$LT$T$GT$3len17h26c3d498c04834c4E>:
    7c60:	50                   	push   rax
    7c61:	48 89 3c 24          	mov    QWORD PTR [rsp],rdi
    7c65:	48 8b 47 10          	mov    rax,QWORD PTR [rdi+0x10]
    7c69:	59                   	pop    rcx
    7c6a:	c3                   	ret    
    7c6b:	0f 1f 44 00 00       	nop    DWORD PTR [rax+rax*1+0x0]

0000000000007c70 <_ZN5alloc3vec12Vec$LT$T$GT$6as_ptr17hbd1725d76f0ac88dE>:
    7c70:	48 83 ec 18          	sub    rsp,0x18
    7c74:	48 89 7c 24 08       	mov    QWORD PTR [rsp+0x8],rdi
    7c79:	e8 a2 e3 ff ff       	call   6020 <_ZN5alloc7raw_vec19RawVec$LT$T$C$A$GT$3ptr17head1549401552cbfE>
    7c7e:	48 89 44 24 10       	mov    QWORD PTR [rsp+0x10],rax
    7c83:	48 89 04 24          	mov    QWORD PTR [rsp],rax
    7c87:	48 8b 3c 24          	mov    rdi,QWORD PTR [rsp]
    7c8b:	e8 30 01 00 00       	call   7dc0 <_ZN4core3ptr7mut_ptr31_$LT$impl$u20$$BP$mut$u20$T$GT$7is_null17h26af595964ca63bbE>
    7c90:	48 8b 04 24          	mov    rax,QWORD PTR [rsp]
    7c94:	48 83 c4 18          	add    rsp,0x18
    7c98:	c3                   	ret    
    7c99:	0f 1f 80 00 00 00 00 	nop    DWORD PTR [rax+0x0]

0000000000007ca0 <_ZN5alloc3vec12Vec$LT$T$GT$7reserve17hd6f12bbe6132bc43E>:
    7ca0:	48 83 ec 18          	sub    rsp,0x18
    7ca4:	48 89 7c 24 08       	mov    QWORD PTR [rsp+0x8],rdi
    7ca9:	48 89 74 24 10       	mov    QWORD PTR [rsp+0x10],rsi
    7cae:	48 89 f8             	mov    rax,rdi
    7cb1:	48 8b 4f 10          	mov    rcx,QWORD PTR [rdi+0x10]
    7cb5:	48 89 c7             	mov    rdi,rax
    7cb8:	48 89 34 24          	mov    QWORD PTR [rsp],rsi
    7cbc:	48 89 ce             	mov    rsi,rcx
    7cbf:	48 8b 14 24          	mov    rdx,QWORD PTR [rsp]
    7cc3:	e8 c8 e3 ff ff       	call   6090 <_ZN5alloc7raw_vec19RawVec$LT$T$C$A$GT$7reserve17h4746fabc8266aa57E>
    7cc8:	48 83 c4 18          	add    rsp,0x18
    7ccc:	c3                   	ret    
    7ccd:	0f 1f 00             	nop    DWORD PTR [rax]

0000000000007cd0 <_ZN68_$LT$alloc..vec..Vec$LT$T$GT$$u20$as$u20$core..ops..deref..Deref$GT$5deref17h9bc74f7546577429E>:
    7cd0:	48 83 ec 28          	sub    rsp,0x28
    7cd4:	48 89 7c 24 20       	mov    QWORD PTR [rsp+0x20],rdi
    7cd9:	48 89 7c 24 18       	mov    QWORD PTR [rsp+0x18],rdi
    7cde:	e8 8d ff ff ff       	call   7c70 <_ZN5alloc3vec12Vec$LT$T$GT$6as_ptr17hbd1725d76f0ac88dE>
    7ce3:	48 89 44 24 10       	mov    QWORD PTR [rsp+0x10],rax
    7ce8:	48 8b 44 24 18       	mov    rax,QWORD PTR [rsp+0x18]
    7ced:	48 8b 70 10          	mov    rsi,QWORD PTR [rax+0x10]
    7cf1:	48 8b 7c 24 10       	mov    rdi,QWORD PTR [rsp+0x10]
    7cf6:	e8 95 e4 ff ff       	call   6190 <_ZN4core5slice3raw14from_raw_parts17h0458ccb9c5b0c529E>
    7cfb:	48 89 44 24 08       	mov    QWORD PTR [rsp+0x8],rax
    7d00:	48 89 14 24          	mov    QWORD PTR [rsp],rdx
    7d04:	48 8b 44 24 08       	mov    rax,QWORD PTR [rsp+0x8]
    7d09:	48 8b 14 24          	mov    rdx,QWORD PTR [rsp]
    7d0d:	48 83 c4 28          	add    rsp,0x28
    7d11:	c3                   	ret    
    7d12:	66 2e 0f 1f 84 00 00 	nop    WORD PTR cs:[rax+rax*1+0x0]
    7d19:	00 00 00 
    7d1c:	0f 1f 40 00          	nop    DWORD PTR [rax+0x0]

0000000000007d20 <_ZN4core3ptr7mut_ptr31_$LT$impl$u20$$BP$mut$u20$T$GT$11write_bytes17h8fc5d9a0733543dbE>:
    7d20:	48 83 ec 18          	sub    rsp,0x18
    7d24:	48 89 3c 24          	mov    QWORD PTR [rsp],rdi
    7d28:	40 88 74 24 0f       	mov    BYTE PTR [rsp+0xf],sil
    7d2d:	48 89 54 24 10       	mov    QWORD PTR [rsp+0x10],rdx
    7d32:	40 0f b6 f6          	movzx  esi,sil
    7d36:	e8 85 e6 ff ff       	call   63c0 <_ZN4core10intrinsics11write_bytes17h80537928c382082dE>
    7d3b:	48 83 c4 18          	add    rsp,0x18
    7d3f:	c3                   	ret    

0000000000007d40 <_ZN4core3ptr7mut_ptr31_$LT$impl$u20$$BP$mut$u20$T$GT$13guaranteed_eq17hde2dfa0da24fccdaE>:
    7d40:	48 83 ec 20          	sub    rsp,0x20
    7d44:	48 89 7c 24 08       	mov    QWORD PTR [rsp+0x8],rdi
    7d49:	48 89 74 24 10       	mov    QWORD PTR [rsp+0x10],rsi
    7d4e:	48 39 f7             	cmp    rdi,rsi
    7d51:	0f 94 c0             	sete   al
    7d54:	24 01                	and    al,0x1
    7d56:	88 44 24 1f          	mov    BYTE PTR [rsp+0x1f],al
    7d5a:	8a 44 24 1f          	mov    al,BYTE PTR [rsp+0x1f]
    7d5e:	88 44 24 07          	mov    BYTE PTR [rsp+0x7],al
    7d62:	8a 44 24 07          	mov    al,BYTE PTR [rsp+0x7]
    7d66:	24 01                	and    al,0x1
    7d68:	0f b6 c0             	movzx  eax,al
    7d6b:	48 83 c4 20          	add    rsp,0x20
    7d6f:	c3                   	ret    

0000000000007d70 <_ZN4core3ptr7mut_ptr31_$LT$impl$u20$$BP$mut$u20$T$GT$3add17h4a18704eb0b729c4E>:
    7d70:	48 83 ec 18          	sub    rsp,0x18
    7d74:	48 89 7c 24 08       	mov    QWORD PTR [rsp+0x8],rdi
    7d79:	48 89 74 24 10       	mov    QWORD PTR [rsp+0x10],rsi
    7d7e:	e8 0d 00 00 00       	call   7d90 <_ZN4core3ptr7mut_ptr31_$LT$impl$u20$$BP$mut$u20$T$GT$6offset17h283834275606d849E>
    7d83:	48 89 04 24          	mov    QWORD PTR [rsp],rax
    7d87:	48 8b 04 24          	mov    rax,QWORD PTR [rsp]
    7d8b:	48 83 c4 18          	add    rsp,0x18
    7d8f:	c3                   	ret    

0000000000007d90 <_ZN4core3ptr7mut_ptr31_$LT$impl$u20$$BP$mut$u20$T$GT$6offset17h283834275606d849E>:
    7d90:	48 83 ec 20          	sub    rsp,0x20
    7d94:	48 89 7c 24 08       	mov    QWORD PTR [rsp+0x8],rdi
    7d99:	48 89 74 24 10       	mov    QWORD PTR [rsp+0x10],rsi
    7d9e:	48 01 f7             	add    rdi,rsi
    7da1:	48 89 7c 24 18       	mov    QWORD PTR [rsp+0x18],rdi
    7da6:	48 8b 44 24 18       	mov    rax,QWORD PTR [rsp+0x18]
    7dab:	48 89 04 24          	mov    QWORD PTR [rsp],rax
    7daf:	48 8b 04 24          	mov    rax,QWORD PTR [rsp]
    7db3:	48 83 c4 20          	add    rsp,0x20
    7db7:	c3                   	ret    
    7db8:	0f 1f 84 00 00 00 00 	nop    DWORD PTR [rax+rax*1+0x0]
    7dbf:	00 

0000000000007dc0 <_ZN4core3ptr7mut_ptr31_$LT$impl$u20$$BP$mut$u20$T$GT$7is_null17h26af595964ca63bbE>:
    7dc0:	48 83 ec 18          	sub    rsp,0x18
    7dc4:	48 89 7c 24 10       	mov    QWORD PTR [rsp+0x10],rdi
    7dc9:	48 89 7c 24 08       	mov    QWORD PTR [rsp+0x8],rdi
    7dce:	31 c0                	xor    eax,eax
    7dd0:	89 c6                	mov    esi,eax
    7dd2:	48 8b 7c 24 08       	mov    rdi,QWORD PTR [rsp+0x8]
    7dd7:	e8 64 ff ff ff       	call   7d40 <_ZN4core3ptr7mut_ptr31_$LT$impl$u20$$BP$mut$u20$T$GT$13guaranteed_eq17hde2dfa0da24fccdaE>
    7ddc:	88 44 24 07          	mov    BYTE PTR [rsp+0x7],al
    7de0:	8a 44 24 07          	mov    al,BYTE PTR [rsp+0x7]
    7de4:	24 01                	and    al,0x1
    7de6:	0f b6 c0             	movzx  eax,al
    7de9:	48 83 c4 18          	add    rsp,0x18
    7ded:	c3                   	ret    
    7dee:	66 90                	xchg   ax,ax

0000000000007df0 <_ZN4core3ptr7mut_ptr41_$LT$impl$u20$$BP$mut$u20$$u5b$T$u5d$$GT$10as_mut_ptr17h591988243839ba5aE>:
    7df0:	48 83 ec 10          	sub    rsp,0x10
    7df4:	48 89 3c 24          	mov    QWORD PTR [rsp],rdi
    7df8:	48 89 74 24 08       	mov    QWORD PTR [rsp+0x8],rsi
    7dfd:	48 89 f8             	mov    rax,rdi
    7e00:	48 83 c4 10          	add    rsp,0x10
    7e04:	c3                   	ret    
    7e05:	66 2e 0f 1f 84 00 00 	nop    WORD PTR cs:[rax+rax*1+0x0]
    7e0c:	00 00 00 
    7e0f:	90                   	nop

0000000000007e10 <_ZN4core3ptr7mut_ptr41_$LT$impl$u20$$BP$mut$u20$$u5b$T$u5d$$GT$3len17hcb70da41dc8b5495E>:
    7e10:	48 83 ec 20          	sub    rsp,0x20
    7e14:	48 89 7c 24 10       	mov    QWORD PTR [rsp+0x10],rdi
    7e19:	48 89 74 24 18       	mov    QWORD PTR [rsp+0x18],rsi
    7e1e:	48 89 3c 24          	mov    QWORD PTR [rsp],rdi
    7e22:	48 89 74 24 08       	mov    QWORD PTR [rsp+0x8],rsi
    7e27:	48 8b 44 24 08       	mov    rax,QWORD PTR [rsp+0x8]
    7e2c:	48 83 c4 20          	add    rsp,0x20
    7e30:	c3                   	ret    
    7e31:	66 2e 0f 1f 84 00 00 	nop    WORD PTR cs:[rax+rax*1+0x0]
    7e38:	00 00 00 
    7e3b:	0f 1f 44 00 00       	nop    DWORD PTR [rax+rax*1+0x0]

0000000000007e40 <_ZN4core5slice29_$LT$impl$u20$$u5b$T$u5d$$GT$3len17hc3ac95fe3708f4acE>:
    7e40:	48 83 ec 20          	sub    rsp,0x20
    7e44:	48 89 7c 24 10       	mov    QWORD PTR [rsp+0x10],rdi
    7e49:	48 89 74 24 18       	mov    QWORD PTR [rsp+0x18],rsi
    7e4e:	48 89 3c 24          	mov    QWORD PTR [rsp],rdi
    7e52:	48 89 74 24 08       	mov    QWORD PTR [rsp+0x8],rsi
    7e57:	48 8b 44 24 08       	mov    rax,QWORD PTR [rsp+0x8]
    7e5c:	48 83 c4 20          	add    rsp,0x20
    7e60:	c3                   	ret    
    7e61:	66 2e 0f 1f 84 00 00 	nop    WORD PTR cs:[rax+rax*1+0x0]
    7e68:	00 00 00 
    7e6b:	0f 1f 44 00 00       	nop    DWORD PTR [rax+rax*1+0x0]

0000000000007e70 <_ZN4core5slice29_$LT$impl$u20$$u5b$T$u5d$$GT$4iter17ha06e93da5c62638bE>:
    7e70:	48 83 ec 28          	sub    rsp,0x28
    7e74:	48 89 7c 24 18       	mov    QWORD PTR [rsp+0x18],rdi
    7e79:	48 89 74 24 20       	mov    QWORD PTR [rsp+0x20],rsi
    7e7e:	e8 0d 04 00 00       	call   8290 <_ZN4core5slice4iter13Iter$LT$T$GT$3new17hecd8a78ad2adb3bbE>
    7e83:	48 89 44 24 10       	mov    QWORD PTR [rsp+0x10],rax
    7e88:	48 89 54 24 08       	mov    QWORD PTR [rsp+0x8],rdx
    7e8d:	48 8b 44 24 10       	mov    rax,QWORD PTR [rsp+0x10]
    7e92:	48 8b 54 24 08       	mov    rdx,QWORD PTR [rsp+0x8]
    7e97:	48 83 c4 28          	add    rsp,0x28
    7e9b:	c3                   	ret    
    7e9c:	0f 1f 40 00          	nop    DWORD PTR [rax+0x0]

0000000000007ea0 <_ZN4core5slice29_$LT$impl$u20$$u5b$T$u5d$$GT$6as_ptr17hcde58f3cb5aa0863E>:
    7ea0:	48 83 ec 10          	sub    rsp,0x10
    7ea4:	48 89 3c 24          	mov    QWORD PTR [rsp],rdi
    7ea8:	48 89 74 24 08       	mov    QWORD PTR [rsp+0x8],rsi
    7ead:	48 89 f8             	mov    rax,rdi
    7eb0:	48 83 c4 10          	add    rsp,0x10
    7eb4:	c3                   	ret    
    7eb5:	66 2e 0f 1f 84 00 00 	nop    WORD PTR cs:[rax+rax*1+0x0]
    7ebc:	00 00 00 
    7ebf:	90                   	nop

0000000000007ec0 <_ZN4core3cmp3Ord3max17h38c1b7b582dfd12aE>:
    7ec0:	48 83 ec 18          	sub    rsp,0x18
    7ec4:	48 89 7c 24 08       	mov    QWORD PTR [rsp+0x8],rdi
    7ec9:	48 89 74 24 10       	mov    QWORD PTR [rsp+0x10],rsi
    7ece:	e8 2d 00 00 00       	call   7f00 <_ZN4core3cmp6max_by17hf711be2b1f8afa43E>
    7ed3:	48 89 04 24          	mov    QWORD PTR [rsp],rax
    7ed7:	48 8b 04 24          	mov    rax,QWORD PTR [rsp]
    7edb:	48 83 c4 18          	add    rsp,0x18
    7edf:	c3                   	ret    

0000000000007ee0 <_ZN4core3cmp3max17h5186e9350fd3f3f1E>:
    7ee0:	48 83 ec 18          	sub    rsp,0x18
    7ee4:	48 89 7c 24 08       	mov    QWORD PTR [rsp+0x8],rdi
    7ee9:	48 89 74 24 10       	mov    QWORD PTR [rsp+0x10],rsi
    7eee:	e8 cd ff ff ff       	call   7ec0 <_ZN4core3cmp3Ord3max17h38c1b7b582dfd12aE>
    7ef3:	48 89 04 24          	mov    QWORD PTR [rsp],rax
    7ef7:	48 8b 04 24          	mov    rax,QWORD PTR [rsp]
    7efb:	48 83 c4 18          	add    rsp,0x18
    7eff:	c3                   	ret    

0000000000007f00 <_ZN4core3cmp6max_by17hf711be2b1f8afa43E>:
    7f00:	48 83 ec 58          	sub    rsp,0x58
    7f04:	48 89 7c 24 08       	mov    QWORD PTR [rsp+0x8],rdi
    7f09:	48 89 74 24 10       	mov    QWORD PTR [rsp+0x10],rsi
    7f0e:	c6 44 24 3e 00       	mov    BYTE PTR [rsp+0x3e],0x0
    7f13:	c6 44 24 3f 00       	mov    BYTE PTR [rsp+0x3f],0x0
    7f18:	c6 44 24 3e 01       	mov    BYTE PTR [rsp+0x3e],0x1
    7f1d:	c6 44 24 3f 01       	mov    BYTE PTR [rsp+0x3f],0x1
    7f22:	48 8d 44 24 08       	lea    rax,[rsp+0x8]
    7f27:	48 89 44 24 28       	mov    QWORD PTR [rsp+0x28],rax
    7f2c:	48 8d 44 24 10       	lea    rax,[rsp+0x10]
    7f31:	48 89 44 24 30       	mov    QWORD PTR [rsp+0x30],rax
    7f36:	48 8b 7c 24 28       	mov    rdi,QWORD PTR [rsp+0x28]
    7f3b:	48 8b 74 24 30       	mov    rsi,QWORD PTR [rsp+0x30]
    7f40:	e8 5b 05 00 00       	call   84a0 <_ZN4core3ops8function6FnOnce9call_once17h7514d2edf19783eaE>
    7f45:	88 44 24 07          	mov    BYTE PTR [rsp+0x7],al
    7f49:	eb 0c                	jmp    7f57 <_ZN4core3cmp6max_by17hf711be2b1f8afa43E+0x57>
    7f4b:	48 8b 7c 24 48       	mov    rdi,QWORD PTR [rsp+0x48]
    7f50:	e8 fb d0 ff ff       	call   5050 <_Unwind_Resume@plt>
    7f55:	0f 0b                	ud2    
    7f57:	8a 44 24 07          	mov    al,BYTE PTR [rsp+0x7]
    7f5b:	88 44 24 27          	mov    BYTE PTR [rsp+0x27],al
    7f5f:	48 0f be 4c 24 27    	movsx  rcx,BYTE PTR [rsp+0x27]
    7f65:	48 83 c1 01          	add    rcx,0x1
    7f69:	48 83 e9 02          	sub    rcx,0x2
    7f6d:	72 27                	jb     7f96 <_ZN4core3cmp6max_by17hf711be2b1f8afa43E+0x96>
    7f6f:	eb 00                	jmp    7f71 <_ZN4core3cmp6max_by17hf711be2b1f8afa43E+0x71>
    7f71:	eb 10                	jmp    7f83 <_ZN4core3cmp6max_by17hf711be2b1f8afa43E+0x83>
    7f73:	f6 44 24 3e 01       	test   BYTE PTR [rsp+0x3e],0x1
    7f78:	75 43                	jne    7fbd <_ZN4core3cmp6max_by17hf711be2b1f8afa43E+0xbd>
    7f7a:	eb cf                	jmp    7f4b <_ZN4core3cmp6max_by17hf711be2b1f8afa43E+0x4b>
    7f7c:	c6 44 24 3f 00       	mov    BYTE PTR [rsp+0x3f],0x0
    7f81:	eb f0                	jmp    7f73 <_ZN4core3cmp6max_by17hf711be2b1f8afa43E+0x73>
    7f83:	c6 44 24 3e 00       	mov    BYTE PTR [rsp+0x3e],0x0
    7f88:	48 8b 44 24 08       	mov    rax,QWORD PTR [rsp+0x8]
    7f8d:	48 89 44 24 18       	mov    QWORD PTR [rsp+0x18],rax
    7f92:	eb 11                	jmp    7fa5 <_ZN4core3cmp6max_by17hf711be2b1f8afa43E+0xa5>
    7f94:	0f 0b                	ud2    
    7f96:	c6 44 24 3f 00       	mov    BYTE PTR [rsp+0x3f],0x0
    7f9b:	48 8b 44 24 10       	mov    rax,QWORD PTR [rsp+0x10]
    7fa0:	48 89 44 24 18       	mov    QWORD PTR [rsp+0x18],rax
    7fa5:	f6 44 24 3f 01       	test   BYTE PTR [rsp+0x3f],0x1
    7faa:	75 18                	jne    7fc4 <_ZN4core3cmp6max_by17hf711be2b1f8afa43E+0xc4>
    7fac:	f6 44 24 3e 01       	test   BYTE PTR [rsp+0x3e],0x1
    7fb1:	75 18                	jne    7fcb <_ZN4core3cmp6max_by17hf711be2b1f8afa43E+0xcb>
    7fb3:	48 8b 44 24 18       	mov    rax,QWORD PTR [rsp+0x18]
    7fb8:	48 83 c4 58          	add    rsp,0x58
    7fbc:	c3                   	ret    
    7fbd:	c6 44 24 3e 00       	mov    BYTE PTR [rsp+0x3e],0x0
    7fc2:	eb 87                	jmp    7f4b <_ZN4core3cmp6max_by17hf711be2b1f8afa43E+0x4b>
    7fc4:	c6 44 24 3f 00       	mov    BYTE PTR [rsp+0x3f],0x0
    7fc9:	eb e1                	jmp    7fac <_ZN4core3cmp6max_by17hf711be2b1f8afa43E+0xac>
    7fcb:	c6 44 24 3e 00       	mov    BYTE PTR [rsp+0x3e],0x0
    7fd0:	eb e1                	jmp    7fb3 <_ZN4core3cmp6max_by17hf711be2b1f8afa43E+0xb3>
    7fd2:	48 89 44 24 48       	mov    QWORD PTR [rsp+0x48],rax
    7fd7:	89 54 24 50          	mov    DWORD PTR [rsp+0x50],edx
    7fdb:	eb 9f                	jmp    7f7c <_ZN4core3cmp6max_by17hf711be2b1f8afa43E+0x7c>
    7fdd:	0f 1f 00             	nop    DWORD PTR [rax]

0000000000007fe0 <_ZN9ownership4main17h28f052ee185de66dE>:
    7fe0:	48 81 ec 68 01 00 00 	sub    rsp,0x168
    7fe7:	48 8d 05 d6 10 03 00 	lea    rax,[rip+0x310d6]        # 390c4 <str.0+0x44>
    7fee:	48 8d 7c 24 38       	lea    rdi,[rsp+0x38]
    7ff3:	48 89 c6             	mov    rsi,rax
    7ff6:	ba 0e 00 00 00       	mov    edx,0xe
    7ffb:	e8 50 08 00 00       	call   8850 <_ZN76_$LT$alloc..string..String$u20$as$u20$core..convert..From$LT$$RF$str$GT$$GT$4from17ha5c93b6df48f94a5E>
    8000:	eb 0f                	jmp    8011 <_ZN9ownership4main17h28f052ee185de66dE+0x31>
    8002:	48 8b bc 24 40 01 00 	mov    rdi,QWORD PTR [rsp+0x140]
    8009:	00 
    800a:	e8 41 d0 ff ff       	call   5050 <_Unwind_Resume@plt>
    800f:	0f 0b                	ud2    
    8011:	48 8d 35 ba 10 03 00 	lea    rsi,[rip+0x310ba]        # 390d2 <str.0+0x52>
    8018:	48 8d 7c 24 38       	lea    rdi,[rsp+0x38]
    801d:	ba 06 00 00 00       	mov    edx,0x6
    8022:	e8 39 07 00 00       	call   8760 <_ZN5alloc6string6String8push_str17h810b22cc858a4990E>
    8027:	eb 00                	jmp    8029 <_ZN9ownership4main17h28f052ee185de66dE+0x49>
    8029:	48 8d 44 24 38       	lea    rax,[rsp+0x38]
    802e:	48 89 84 24 90 00 00 	mov    QWORD PTR [rsp+0x90],rax
    8035:	00 
    8036:	48 8b 84 24 90 00 00 	mov    rax,QWORD PTR [rsp+0x90]
    803d:	00 
    803e:	48 89 84 24 50 01 00 	mov    QWORD PTR [rsp+0x150],rax
    8045:	00 
    8046:	48 8d 35 73 07 00 00 	lea    rsi,[rip+0x773]        # 87c0 <_ZN60_$LT$alloc..string..String$u20$as$u20$core..fmt..Display$GT$3fmt17hb4dc7556b669fab9E>
    804d:	48 89 c7             	mov    rdi,rax
    8050:	e8 8b ec ff ff       	call   6ce0 <_ZN4core3fmt10ArgumentV13new17h7afee37c0c9f8118E>
    8055:	48 89 54 24 30       	mov    QWORD PTR [rsp+0x30],rdx
    805a:	48 89 44 24 28       	mov    QWORD PTR [rsp+0x28],rax
    805f:	eb 0c                	jmp    806d <_ZN9ownership4main17h28f052ee185de66dE+0x8d>
    8061:	48 8d 7c 24 38       	lea    rdi,[rsp+0x38]
    8066:	e8 b5 04 00 00       	call   8520 <_ZN4core3ptr13drop_in_place17h2e6e11db72490ffcE>
    806b:	eb 95                	jmp    8002 <_ZN9ownership4main17h28f052ee185de66dE+0x22>
    806d:	48 8b 44 24 28       	mov    rax,QWORD PTR [rsp+0x28]
    8072:	48 89 84 24 80 00 00 	mov    QWORD PTR [rsp+0x80],rax
    8079:	00 
    807a:	48 8b 4c 24 30       	mov    rcx,QWORD PTR [rsp+0x30]
    807f:	48 89 8c 24 88 00 00 	mov    QWORD PTR [rsp+0x88],rcx
    8086:	00 
    8087:	48 8d 35 72 f6 03 00 	lea    rsi,[rip+0x3f672]        # 47700 <__do_global_dtors_aux_fini_array_entry+0x70>
    808e:	48 8d 7c 24 50       	lea    rdi,[rsp+0x50]
    8093:	ba 02 00 00 00       	mov    edx,0x2
    8098:	48 8d 8c 24 80 00 00 	lea    rcx,[rsp+0x80]
    809f:	00 
    80a0:	41 b8 01 00 00 00    	mov    r8d,0x1
    80a6:	e8 75 e3 ff ff       	call   6420 <_ZN4core3fmt9Arguments6new_v117hd9566fa5f5ba3b86E>
    80ab:	eb 00                	jmp    80ad <_ZN9ownership4main17h28f052ee185de66dE+0xcd>
    80ad:	48 8d 05 bc 09 01 00 	lea    rax,[rip+0x109bc]        # 18a70 <_ZN3std2io5stdio6_print17h0d31d4b9faa6e1ecE>
    80b4:	48 8d 7c 24 50       	lea    rdi,[rsp+0x50]
    80b9:	ff d0                	call   rax
    80bb:	eb 00                	jmp    80bd <_ZN9ownership4main17h28f052ee185de66dE+0xdd>
    80bd:	48 8d 35 15 10 03 00 	lea    rsi,[rip+0x31015]        # 390d9 <str.0+0x59>
    80c4:	48 8d bc 24 98 00 00 	lea    rdi,[rsp+0x98]
    80cb:	00 
    80cc:	ba 1c 00 00 00       	mov    edx,0x1c
    80d1:	e8 7a 07 00 00       	call   8850 <_ZN76_$LT$alloc..string..String$u20$as$u20$core..convert..From$LT$$RF$str$GT$$GT$4from17ha5c93b6df48f94a5E>
    80d6:	eb 00                	jmp    80d8 <_ZN9ownership4main17h28f052ee185de66dE+0xf8>
    80d8:	48 8d 84 24 98 00 00 	lea    rax,[rsp+0x98]
    80df:	00 
    80e0:	48 89 84 24 f0 00 00 	mov    QWORD PTR [rsp+0xf0],rax
    80e7:	00 
    80e8:	48 8b 84 24 f0 00 00 	mov    rax,QWORD PTR [rsp+0xf0]
    80ef:	00 
    80f0:	48 89 84 24 58 01 00 	mov    QWORD PTR [rsp+0x158],rax
    80f7:	00 
    80f8:	48 8d 35 c1 06 00 00 	lea    rsi,[rip+0x6c1]        # 87c0 <_ZN60_$LT$alloc..string..String$u20$as$u20$core..fmt..Display$GT$3fmt17hb4dc7556b669fab9E>
    80ff:	48 89 c7             	mov    rdi,rax
    8102:	e8 d9 eb ff ff       	call   6ce0 <_ZN4core3fmt10ArgumentV13new17h7afee37c0c9f8118E>
    8107:	48 89 54 24 20       	mov    QWORD PTR [rsp+0x20],rdx
    810c:	48 89 44 24 18       	mov    QWORD PTR [rsp+0x18],rax
    8111:	eb 00                	jmp    8113 <_ZN9ownership4main17h28f052ee185de66dE+0x133>
    8113:	48 8b 44 24 18       	mov    rax,QWORD PTR [rsp+0x18]
    8118:	48 89 84 24 e0 00 00 	mov    QWORD PTR [rsp+0xe0],rax
    811f:	00 
    8120:	48 8b 4c 24 20       	mov    rcx,QWORD PTR [rsp+0x20]
    8125:	48 89 8c 24 e8 00 00 	mov    QWORD PTR [rsp+0xe8],rcx
    812c:	00 
    812d:	48 8d 35 cc f5 03 00 	lea    rsi,[rip+0x3f5cc]        # 47700 <__do_global_dtors_aux_fini_array_entry+0x70>
    8134:	48 8d bc 24 b0 00 00 	lea    rdi,[rsp+0xb0]
    813b:	00 
    813c:	ba 02 00 00 00       	mov    edx,0x2
    8141:	48 8d 8c 24 e0 00 00 	lea    rcx,[rsp+0xe0]
    8148:	00 
    8149:	41 b8 01 00 00 00    	mov    r8d,0x1
    814f:	e8 cc e2 ff ff       	call   6420 <_ZN4core3fmt9Arguments6new_v117hd9566fa5f5ba3b86E>
    8154:	eb 12                	jmp    8168 <_ZN9ownership4main17h28f052ee185de66dE+0x188>
    8156:	48 8d bc 24 98 00 00 	lea    rdi,[rsp+0x98]
    815d:	00 
    815e:	e8 bd 03 00 00       	call   8520 <_ZN4core3ptr13drop_in_place17h2e6e11db72490ffcE>
    8163:	e9 f9 fe ff ff       	jmp    8061 <_ZN9ownership4main17h28f052ee185de66dE+0x81>
    8168:	48 8d 05 01 09 01 00 	lea    rax,[rip+0x10901]        # 18a70 <_ZN3std2io5stdio6_print17h0d31d4b9faa6e1ecE>
    816f:	48 8d bc 24 b0 00 00 	lea    rdi,[rsp+0xb0]
    8176:	00 
    8177:	ff d0                	call   rax
    8179:	eb 00                	jmp    817b <_ZN9ownership4main17h28f052ee185de66dE+0x19b>
    817b:	48 8d bc 24 98 00 00 	lea    rdi,[rsp+0x98]
    8182:	00 
    8183:	e8 98 03 00 00       	call   8520 <_ZN4core3ptr13drop_in_place17h2e6e11db72490ffcE>
    8188:	eb 00                	jmp    818a <_ZN9ownership4main17h28f052ee185de66dE+0x1aa>
    818a:	48 8d 44 24 38       	lea    rax,[rsp+0x38]
    818f:	48 89 84 24 38 01 00 	mov    QWORD PTR [rsp+0x138],rax
    8196:	00 
    8197:	48 8b 84 24 38 01 00 	mov    rax,QWORD PTR [rsp+0x138]
    819e:	00 
    819f:	48 89 84 24 60 01 00 	mov    QWORD PTR [rsp+0x160],rax
    81a6:	00 
    81a7:	48 8d 35 12 06 00 00 	lea    rsi,[rip+0x612]        # 87c0 <_ZN60_$LT$alloc..string..String$u20$as$u20$core..fmt..Display$GT$3fmt17hb4dc7556b669fab9E>
    81ae:	48 89 c7             	mov    rdi,rax
    81b1:	e8 2a eb ff ff       	call   6ce0 <_ZN4core3fmt10ArgumentV13new17h7afee37c0c9f8118E>
    81b6:	48 89 54 24 10       	mov    QWORD PTR [rsp+0x10],rdx
    81bb:	48 89 44 24 08       	mov    QWORD PTR [rsp+0x8],rax
    81c0:	eb 00                	jmp    81c2 <_ZN9ownership4main17h28f052ee185de66dE+0x1e2>
    81c2:	48 8b 44 24 08       	mov    rax,QWORD PTR [rsp+0x8]
    81c7:	48 89 84 24 28 01 00 	mov    QWORD PTR [rsp+0x128],rax
    81ce:	00 
    81cf:	48 8b 4c 24 10       	mov    rcx,QWORD PTR [rsp+0x10]
    81d4:	48 89 8c 24 30 01 00 	mov    QWORD PTR [rsp+0x130],rcx
    81db:	00 
    81dc:	48 8d 35 1d f5 03 00 	lea    rsi,[rip+0x3f51d]        # 47700 <__do_global_dtors_aux_fini_array_entry+0x70>
    81e3:	48 8d bc 24 f8 00 00 	lea    rdi,[rsp+0xf8]
    81ea:	00 
    81eb:	ba 02 00 00 00       	mov    edx,0x2
    81f0:	48 8d 8c 24 28 01 00 	lea    rcx,[rsp+0x128]
    81f7:	00 
    81f8:	41 b8 01 00 00 00    	mov    r8d,0x1
    81fe:	e8 1d e2 ff ff       	call   6420 <_ZN4core3fmt9Arguments6new_v117hd9566fa5f5ba3b86E>
    8203:	eb 00                	jmp    8205 <_ZN9ownership4main17h28f052ee185de66dE+0x225>
    8205:	48 8d 05 64 08 01 00 	lea    rax,[rip+0x10864]        # 18a70 <_ZN3std2io5stdio6_print17h0d31d4b9faa6e1ecE>
    820c:	48 8d bc 24 f8 00 00 	lea    rdi,[rsp+0xf8]
    8213:	00 
    8214:	ff d0                	call   rax
    8216:	eb 00                	jmp    8218 <_ZN9ownership4main17h28f052ee185de66dE+0x238>
    8218:	48 8d 7c 24 38       	lea    rdi,[rsp+0x38]
    821d:	e8 fe 02 00 00       	call   8520 <_ZN4core3ptr13drop_in_place17h2e6e11db72490ffcE>
    8222:	48 81 c4 68 01 00 00 	add    rsp,0x168
    8229:	c3                   	ret    
    822a:	48 89 84 24 40 01 00 	mov    QWORD PTR [rsp+0x140],rax
    8231:	00 
    8232:	89 94 24 48 01 00 00 	mov    DWORD PTR [rsp+0x148],edx
    8239:	e9 23 fe ff ff       	jmp    8061 <_ZN9ownership4main17h28f052ee185de66dE+0x81>
    823e:	48 89 84 24 40 01 00 	mov    QWORD PTR [rsp+0x140],rax
    8245:	00 
    8246:	89 94 24 48 01 00 00 	mov    DWORD PTR [rsp+0x148],edx
    824d:	e9 04 ff ff ff       	jmp    8156 <_ZN9ownership4main17h28f052ee185de66dE+0x176>
    8252:	66 2e 0f 1f 84 00 00 	nop    WORD PTR cs:[rax+rax*1+0x0]
    8259:	00 00 00 
    825c:	0f 1f 40 00          	nop    DWORD PTR [rax+0x0]

0000000000008260 <main>:
    8260:	48 83 ec 18          	sub    rsp,0x18
    8264:	8a 05 2f 59 03 00    	mov    al,BYTE PTR [rip+0x3592f]        # 3db99 <__rustc_debug_gdb_scripts_section__>
    826a:	48 63 cf             	movsxd rcx,edi
    826d:	48 8d 3d 6c fd ff ff 	lea    rdi,[rip+0xfffffffffffffd6c]        # 7fe0 <_ZN9ownership4main17h28f052ee185de66dE>
    8274:	48 89 74 24 10       	mov    QWORD PTR [rsp+0x10],rsi
    8279:	48 89 ce             	mov    rsi,rcx
    827c:	48 8b 54 24 10       	mov    rdx,QWORD PTR [rsp+0x10]
    8281:	88 44 24 0f          	mov    BYTE PTR [rsp+0xf],al
    8285:	e8 36 df ff ff       	call   61c0 <_ZN3std2rt10lang_start17h7d5b4ea17e7fd5daE>
    828a:	48 83 c4 18          	add    rsp,0x18
    828e:	c3                   	ret    
    828f:	90                   	nop

0000000000008290 <_ZN4core5slice4iter13Iter$LT$T$GT$3new17hecd8a78ad2adb3bbE>:
    8290:	48 83 ec 78          	sub    rsp,0x78
    8294:	48 89 7c 24 58       	mov    QWORD PTR [rsp+0x58],rdi
    8299:	48 89 74 24 60       	mov    QWORD PTR [rsp+0x60],rsi
    829e:	48 89 7c 24 38       	mov    QWORD PTR [rsp+0x38],rdi
    82a3:	48 89 74 24 30       	mov    QWORD PTR [rsp+0x30],rsi
    82a8:	e8 f3 fb ff ff       	call   7ea0 <_ZN4core5slice29_$LT$impl$u20$$u5b$T$u5d$$GT$6as_ptr17hcde58f3cb5aa0863E>
    82ad:	48 89 44 24 68       	mov    QWORD PTR [rsp+0x68],rax
    82b2:	48 89 44 24 28       	mov    QWORD PTR [rsp+0x28],rax
    82b7:	48 8b 7c 24 28       	mov    rdi,QWORD PTR [rsp+0x28]
    82bc:	e8 1f 0b 00 00       	call   8de0 <_ZN4core3ptr9const_ptr33_$LT$impl$u20$$BP$const$u20$T$GT$7is_null17hc0efeddd91bd668eE>
    82c1:	48 c7 44 24 70 01 00 	mov    QWORD PTR [rsp+0x70],0x1
    82c8:	00 00 
    82ca:	48 8b 44 24 70       	mov    rax,QWORD PTR [rsp+0x70]
    82cf:	48 89 44 24 20       	mov    QWORD PTR [rsp+0x20],rax
    82d4:	48 8b 44 24 20       	mov    rax,QWORD PTR [rsp+0x20]
    82d9:	48 83 f8 00          	cmp    rax,0x0
    82dd:	74 16                	je     82f5 <_ZN4core5slice4iter13Iter$LT$T$GT$3new17hecd8a78ad2adb3bbE+0x65>
    82df:	48 8b 7c 24 38       	mov    rdi,QWORD PTR [rsp+0x38]
    82e4:	48 8b 74 24 30       	mov    rsi,QWORD PTR [rsp+0x30]
    82e9:	e8 52 fb ff ff       	call   7e40 <_ZN4core5slice29_$LT$impl$u20$$u5b$T$u5d$$GT$3len17hc3ac95fe3708f4acE>
    82ee:	48 89 44 24 18       	mov    QWORD PTR [rsp+0x18],rax
    82f3:	eb 34                	jmp    8329 <_ZN4core5slice4iter13Iter$LT$T$GT$3new17hecd8a78ad2adb3bbE+0x99>
    82f5:	48 8b 7c 24 38       	mov    rdi,QWORD PTR [rsp+0x38]
    82fa:	48 8b 74 24 30       	mov    rsi,QWORD PTR [rsp+0x30]
    82ff:	e8 3c fb ff ff       	call   7e40 <_ZN4core5slice29_$LT$impl$u20$$u5b$T$u5d$$GT$3len17hc3ac95fe3708f4acE>
    8304:	48 89 44 24 10       	mov    QWORD PTR [rsp+0x10],rax
    8309:	48 8b 7c 24 28       	mov    rdi,QWORD PTR [rsp+0x28]
    830e:	48 8b 74 24 10       	mov    rsi,QWORD PTR [rsp+0x10]
    8313:	e8 f8 09 00 00       	call   8d10 <_ZN4core3ptr9const_ptr33_$LT$impl$u20$$BP$const$u20$T$GT$12wrapping_add17hbe315347f45ecdfeE>
    8318:	48 89 44 24 08       	mov    QWORD PTR [rsp+0x8],rax
    831d:	48 8b 44 24 08       	mov    rax,QWORD PTR [rsp+0x8]
    8322:	48 89 44 24 50       	mov    QWORD PTR [rsp+0x50],rax
    8327:	eb 16                	jmp    833f <_ZN4core5slice4iter13Iter$LT$T$GT$3new17hecd8a78ad2adb3bbE+0xaf>
    8329:	48 8b 7c 24 28       	mov    rdi,QWORD PTR [rsp+0x28]
    832e:	48 8b 74 24 18       	mov    rsi,QWORD PTR [rsp+0x18]
    8333:	e8 58 0a 00 00       	call   8d90 <_ZN4core3ptr9const_ptr33_$LT$impl$u20$$BP$const$u20$T$GT$3add17ha8d1f5d61fef94a0E>
    8338:	48 89 44 24 50       	mov    QWORD PTR [rsp+0x50],rax
    833d:	eb 00                	jmp    833f <_ZN4core5slice4iter13Iter$LT$T$GT$3new17hecd8a78ad2adb3bbE+0xaf>
    833f:	48 8b 7c 24 28       	mov    rdi,QWORD PTR [rsp+0x28]
    8344:	e8 57 f0 ff ff       	call   73a0 <_ZN4core3ptr8non_null16NonNull$LT$T$GT$13new_unchecked17hcca2a50d89b4fc2cE>
    8349:	48 89 04 24          	mov    QWORD PTR [rsp],rax
    834d:	48 8b 44 24 50       	mov    rax,QWORD PTR [rsp+0x50]
    8352:	48 8b 0c 24          	mov    rcx,QWORD PTR [rsp]
    8356:	48 89 4c 24 40       	mov    QWORD PTR [rsp+0x40],rcx
    835b:	48 89 44 24 48       	mov    QWORD PTR [rsp+0x48],rax
    8360:	48 8b 44 24 40       	mov    rax,QWORD PTR [rsp+0x40]
    8365:	48 8b 54 24 48       	mov    rdx,QWORD PTR [rsp+0x48]
    836a:	48 83 c4 78          	add    rsp,0x78
    836e:	c3                   	ret    
    836f:	90                   	nop

0000000000008370 <_ZN4core5slice4iter13Iter$LT$T$GT$8as_slice17h54fff46bea518674E>:
    8370:	48 81 ec 88 00 00 00 	sub    rsp,0x88
    8377:	48 89 7c 24 40       	mov    QWORD PTR [rsp+0x40],rdi
    837c:	48 89 7c 24 50       	mov    QWORD PTR [rsp+0x50],rdi
    8381:	48 8b 07             	mov    rax,QWORD PTR [rdi]
    8384:	48 89 7c 24 38       	mov    QWORD PTR [rsp+0x38],rdi
    8389:	48 89 c7             	mov    rdi,rax
    838c:	e8 df f0 ff ff       	call   7470 <_ZN4core3ptr8non_null16NonNull$LT$T$GT$6as_ptr17h6cc5f652a3c8a2aeE>
    8391:	48 8b 4c 24 38       	mov    rcx,QWORD PTR [rsp+0x38]
    8396:	48 8b 11             	mov    rdx,QWORD PTR [rcx]
    8399:	48 89 54 24 58       	mov    QWORD PTR [rsp+0x58],rdx
    839e:	48 89 d7             	mov    rdi,rdx
    83a1:	48 89 44 24 30       	mov    QWORD PTR [rsp+0x30],rax
    83a6:	48 89 54 24 28       	mov    QWORD PTR [rsp+0x28],rdx
    83ab:	e8 c0 f0 ff ff       	call   7470 <_ZN4core3ptr8non_null16NonNull$LT$T$GT$6as_ptr17h6cc5f652a3c8a2aeE>
    83b0:	48 89 44 24 78       	mov    QWORD PTR [rsp+0x78],rax
    83b5:	48 c7 84 24 80 00 00 	mov    QWORD PTR [rsp+0x80],0x1
    83bc:	00 01 00 00 00 
    83c1:	48 8b 84 24 80 00 00 	mov    rax,QWORD PTR [rsp+0x80]
    83c8:	00 
    83c9:	48 89 44 24 60       	mov    QWORD PTR [rsp+0x60],rax
    83ce:	48 83 f8 00          	cmp    rax,0x0
    83d2:	48 89 44 24 20       	mov    QWORD PTR [rsp+0x20],rax
    83d7:	74 40                	je     8419 <_ZN4core5slice4iter13Iter$LT$T$GT$8as_slice17h54fff46bea518674E+0xa9>
    83d9:	48 8b 44 24 38       	mov    rax,QWORD PTR [rsp+0x38]
    83de:	48 8b 48 08          	mov    rcx,QWORD PTR [rax+0x8]
    83e2:	48 8b 7c 24 28       	mov    rdi,QWORD PTR [rsp+0x28]
    83e7:	48 89 4c 24 18       	mov    QWORD PTR [rsp+0x18],rcx
    83ec:	e8 7f f0 ff ff       	call   7470 <_ZN4core3ptr8non_null16NonNull$LT$T$GT$6as_ptr17h6cc5f652a3c8a2aeE>
    83f1:	48 8b 4c 24 18       	mov    rcx,QWORD PTR [rsp+0x18]
    83f6:	48 29 c1             	sub    rcx,rax
    83f9:	48 89 4c 24 68       	mov    QWORD PTR [rsp+0x68],rcx
    83fe:	48 8b 44 24 68       	mov    rax,QWORD PTR [rsp+0x68]
    8403:	48 89 44 24 70       	mov    QWORD PTR [rsp+0x70],rax
    8408:	31 d2                	xor    edx,edx
    840a:	48 8b 4c 24 20       	mov    rcx,QWORD PTR [rsp+0x20]
    840f:	48 f7 f1             	div    rcx
    8412:	48 89 44 24 48       	mov    QWORD PTR [rsp+0x48],rax
    8417:	eb 2d                	jmp    8446 <_ZN4core5slice4iter13Iter$LT$T$GT$8as_slice17h54fff46bea518674E+0xd6>
    8419:	48 8b 44 24 38       	mov    rax,QWORD PTR [rsp+0x38]
    841e:	48 8b 78 08          	mov    rdi,QWORD PTR [rax+0x8]
    8422:	48 8b 4c 24 28       	mov    rcx,QWORD PTR [rsp+0x28]
    8427:	48 89 7c 24 10       	mov    QWORD PTR [rsp+0x10],rdi
    842c:	48 89 cf             	mov    rdi,rcx
    842f:	e8 3c f0 ff ff       	call   7470 <_ZN4core3ptr8non_null16NonNull$LT$T$GT$6as_ptr17h6cc5f652a3c8a2aeE>
    8434:	48 8b 7c 24 10       	mov    rdi,QWORD PTR [rsp+0x10]
    8439:	48 89 c6             	mov    rsi,rax
    843c:	e8 bf f4 ff ff       	call   7900 <_ZN4core3num23_$LT$impl$u20$usize$GT$12wrapping_sub17h024ee33beffc4823E>
    8441:	48 89 44 24 48       	mov    QWORD PTR [rsp+0x48],rax
    8446:	48 8b 74 24 48       	mov    rsi,QWORD PTR [rsp+0x48]
    844b:	48 8b 7c 24 30       	mov    rdi,QWORD PTR [rsp+0x30]
    8450:	e8 3b dd ff ff       	call   6190 <_ZN4core5slice3raw14from_raw_parts17h0458ccb9c5b0c529E>
    8455:	48 89 44 24 08       	mov    QWORD PTR [rsp+0x8],rax
    845a:	48 89 14 24          	mov    QWORD PTR [rsp],rdx
    845e:	48 8b 44 24 08       	mov    rax,QWORD PTR [rsp+0x8]
    8463:	48 8b 14 24          	mov    rdx,QWORD PTR [rsp]
    8467:	48 81 c4 88 00 00 00 	add    rsp,0x88
    846e:	c3                   	ret    
    846f:	90                   	nop

0000000000008470 <_ZN4core3ops8function6FnOnce40call_once$u7b$$u7b$vtable.shim$u7d$$u7d$17h2d752cc5be194bbbE>:
    8470:	48 83 ec 18          	sub    rsp,0x18
    8474:	48 89 7c 24 10       	mov    QWORD PTR [rsp+0x10],rdi
    8479:	48 8b 3f             	mov    rdi,QWORD PTR [rdi]
    847c:	e8 4f 00 00 00       	call   84d0 <_ZN4core3ops8function6FnOnce9call_once17hc0861e3636cdcdbdE>
    8481:	89 44 24 04          	mov    DWORD PTR [rsp+0x4],eax
    8485:	8b 44 24 04          	mov    eax,DWORD PTR [rsp+0x4]
    8489:	48 83 c4 18          	add    rsp,0x18
    848d:	c3                   	ret    
    848e:	66 90                	xchg   ax,ax

0000000000008490 <_ZN4core3ops8function6FnOnce9call_once17h2d11054ba177ee81E>:
    8490:	48 83 ec 18          	sub    rsp,0x18
    8494:	48 89 7c 24 10       	mov    QWORD PTR [rsp+0x10],rdi
    8499:	ff d7                	call   rdi
    849b:	48 83 c4 18          	add    rsp,0x18
    849f:	c3                   	ret    

00000000000084a0 <_ZN4core3ops8function6FnOnce9call_once17h7514d2edf19783eaE>:
    84a0:	48 83 ec 28          	sub    rsp,0x28
    84a4:	48 89 7c 24 10       	mov    QWORD PTR [rsp+0x10],rdi
    84a9:	48 89 74 24 18       	mov    QWORD PTR [rsp+0x18],rsi
    84ae:	48 8b 7c 24 10       	mov    rdi,QWORD PTR [rsp+0x10]
    84b3:	48 8b 74 24 18       	mov    rsi,QWORD PTR [rsp+0x18]
    84b8:	e8 73 f5 ff ff       	call   7a30 <_ZN4core3cmp5impls50_$LT$impl$u20$core..cmp..Ord$u20$for$u20$usize$GT$3cmp17h7857666d138f537fE>
    84bd:	88 44 24 0f          	mov    BYTE PTR [rsp+0xf],al
    84c1:	8a 44 24 0f          	mov    al,BYTE PTR [rsp+0xf]
    84c5:	48 83 c4 28          	add    rsp,0x28
    84c9:	c3                   	ret    
    84ca:	66 0f 1f 44 00 00    	nop    WORD PTR [rax+rax*1+0x0]

00000000000084d0 <_ZN4core3ops8function6FnOnce9call_once17hc0861e3636cdcdbdE>:
    84d0:	48 83 ec 28          	sub    rsp,0x28
    84d4:	48 89 7c 24 08       	mov    QWORD PTR [rsp+0x8],rdi
    84d9:	48 8d 7c 24 08       	lea    rdi,[rsp+0x8]
    84de:	e8 3d dd ff ff       	call   6220 <_ZN3std2rt10lang_start28_$u7b$$u7b$closure$u7d$$u7d$17h328e8dcfdaf1b913E>
    84e3:	89 44 24 04          	mov    DWORD PTR [rsp+0x4],eax
    84e7:	eb 00                	jmp    84e9 <_ZN4core3ops8function6FnOnce9call_once17hc0861e3636cdcdbdE+0x19>
    84e9:	eb 00                	jmp    84eb <_ZN4core3ops8function6FnOnce9call_once17hc0861e3636cdcdbdE+0x1b>
    84eb:	8b 44 24 04          	mov    eax,DWORD PTR [rsp+0x4]
    84ef:	48 83 c4 28          	add    rsp,0x28
    84f3:	c3                   	ret    
    84f4:	eb 00                	jmp    84f6 <_ZN4core3ops8function6FnOnce9call_once17hc0861e3636cdcdbdE+0x26>
    84f6:	48 8b 7c 24 18       	mov    rdi,QWORD PTR [rsp+0x18]
    84fb:	e8 50 cb ff ff       	call   5050 <_Unwind_Resume@plt>
    8500:	0f 0b                	ud2    
    8502:	48 89 44 24 18       	mov    QWORD PTR [rsp+0x18],rax
    8507:	89 54 24 20          	mov    DWORD PTR [rsp+0x20],edx
    850b:	eb e7                	jmp    84f4 <_ZN4core3ops8function6FnOnce9call_once17hc0861e3636cdcdbdE+0x24>
    850d:	0f 1f 00             	nop    DWORD PTR [rax]

0000000000008510 <_ZN4core3ptr13drop_in_place17h0c01dfff623274b8E>:
    8510:	48 83 ec 10          	sub    rsp,0x10
    8514:	48 89 7c 24 08       	mov    QWORD PTR [rsp+0x8],rdi
    8519:	48 83 c4 10          	add    rsp,0x10
    851d:	c3                   	ret    
    851e:	66 90                	xchg   ax,ax

0000000000008520 <_ZN4core3ptr13drop_in_place17h2e6e11db72490ffcE>:
    8520:	48 83 ec 18          	sub    rsp,0x18
    8524:	48 89 7c 24 10       	mov    QWORD PTR [rsp+0x10],rdi
    8529:	e8 12 00 00 00       	call   8540 <_ZN4core3ptr13drop_in_place17h4070cce8e82b50eaE>
    852e:	48 83 c4 18          	add    rsp,0x18
    8532:	c3                   	ret    
    8533:	66 2e 0f 1f 84 00 00 	nop    WORD PTR cs:[rax+rax*1+0x0]
    853a:	00 00 00 
    853d:	0f 1f 00             	nop    DWORD PTR [rax]

0000000000008540 <_ZN4core3ptr13drop_in_place17h4070cce8e82b50eaE>:
    8540:	48 83 ec 28          	sub    rsp,0x28
    8544:	48 89 7c 24 10       	mov    QWORD PTR [rsp+0x10],rdi
    8549:	48 89 3c 24          	mov    QWORD PTR [rsp],rdi
    854d:	e8 6e 00 00 00       	call   85c0 <_ZN66_$LT$alloc..vec..Vec$LT$T$GT$$u20$as$u20$core..ops..drop..Drop$GT$4drop17h4818a016966b2badE>
    8552:	eb 1f                	jmp    8573 <_ZN4core3ptr13drop_in_place17h4070cce8e82b50eaE+0x33>
    8554:	48 8b 7c 24 18       	mov    rdi,QWORD PTR [rsp+0x18]
    8559:	e8 f2 ca ff ff       	call   5050 <_Unwind_Resume@plt>
    855e:	0f 0b                	ud2    
    8560:	48 83 c4 28          	add    rsp,0x28
    8564:	c3                   	ret    
    8565:	48 8b 04 24          	mov    rax,QWORD PTR [rsp]
    8569:	48 89 c7             	mov    rdi,rax
    856c:	e8 2f 00 00 00       	call   85a0 <_ZN4core3ptr13drop_in_place17hb5845c0639c9d8d4E>
    8571:	eb e1                	jmp    8554 <_ZN4core3ptr13drop_in_place17h4070cce8e82b50eaE+0x14>
    8573:	48 8b 04 24          	mov    rax,QWORD PTR [rsp]
    8577:	48 89 c7             	mov    rdi,rax
    857a:	e8 21 00 00 00       	call   85a0 <_ZN4core3ptr13drop_in_place17hb5845c0639c9d8d4E>
    857f:	eb df                	jmp    8560 <_ZN4core3ptr13drop_in_place17h4070cce8e82b50eaE+0x20>
    8581:	48 89 44 24 18       	mov    QWORD PTR [rsp+0x18],rax
    8586:	89 54 24 20          	mov    DWORD PTR [rsp+0x20],edx
    858a:	eb d9                	jmp    8565 <_ZN4core3ptr13drop_in_place17h4070cce8e82b50eaE+0x25>
    858c:	0f 1f 40 00          	nop    DWORD PTR [rax+0x0]

0000000000008590 <_ZN4core3ptr13drop_in_place17h7194a9bb47517926E>:
    8590:	48 83 ec 10          	sub    rsp,0x10
    8594:	48 89 7c 24 08       	mov    QWORD PTR [rsp+0x8],rdi
    8599:	48 83 c4 10          	add    rsp,0x10
    859d:	c3                   	ret    
    859e:	66 90                	xchg   ax,ax

00000000000085a0 <_ZN4core3ptr13drop_in_place17hb5845c0639c9d8d4E>:
    85a0:	48 83 ec 18          	sub    rsp,0x18
    85a4:	48 89 7c 24 10       	mov    QWORD PTR [rsp+0x10],rdi
    85a9:	e8 42 00 00 00       	call   85f0 <_ZN77_$LT$alloc..raw_vec..RawVec$LT$T$C$A$GT$$u20$as$u20$core..ops..drop..Drop$GT$4drop17h786481b75140b5daE>
    85ae:	48 83 c4 18          	add    rsp,0x18
    85b2:	c3                   	ret    
    85b3:	66 2e 0f 1f 84 00 00 	nop    WORD PTR cs:[rax+rax*1+0x0]
    85ba:	00 00 00 
    85bd:	0f 1f 00             	nop    DWORD PTR [rax]

00000000000085c0 <_ZN66_$LT$alloc..vec..Vec$LT$T$GT$$u20$as$u20$core..ops..drop..Drop$GT$4drop17h4818a016966b2badE>:
    85c0:	48 83 ec 18          	sub    rsp,0x18
    85c4:	48 89 7c 24 10       	mov    QWORD PTR [rsp+0x10],rdi
    85c9:	48 89 7c 24 08       	mov    QWORD PTR [rsp+0x8],rdi
    85ce:	e8 0d f5 ff ff       	call   7ae0 <_ZN5alloc3vec12Vec$LT$T$GT$10as_mut_ptr17h36922a94c3e3941bE>
    85d3:	48 89 04 24          	mov    QWORD PTR [rsp],rax
    85d7:	48 8b 44 24 08       	mov    rax,QWORD PTR [rsp+0x8]
    85dc:	48 8b 70 10          	mov    rsi,QWORD PTR [rax+0x10]
    85e0:	48 8b 3c 24          	mov    rdi,QWORD PTR [rsp]
    85e4:	e8 37 cd ff ff       	call   5320 <_ZN4core3ptr24slice_from_raw_parts_mut17h051ac6d7b5c7fc56E>
    85e9:	eb 00                	jmp    85eb <_ZN66_$LT$alloc..vec..Vec$LT$T$GT$$u20$as$u20$core..ops..drop..Drop$GT$4drop17h4818a016966b2badE+0x2b>
    85eb:	48 83 c4 18          	add    rsp,0x18
    85ef:	c3                   	ret    

00000000000085f0 <_ZN77_$LT$alloc..raw_vec..RawVec$LT$T$C$A$GT$$u20$as$u20$core..ops..drop..Drop$GT$4drop17h786481b75140b5daE>:
    85f0:	48 83 ec 58          	sub    rsp,0x58
    85f4:	48 89 7c 24 38       	mov    QWORD PTR [rsp+0x38],rdi
    85f9:	48 8d 44 24 20       	lea    rax,[rsp+0x20]
    85fe:	48 89 7c 24 10       	mov    QWORD PTR [rsp+0x10],rdi
    8603:	48 89 c7             	mov    rdi,rax
    8606:	48 8b 74 24 10       	mov    rsi,QWORD PTR [rsp+0x10]
    860b:	e8 a0 d4 ff ff       	call   5ab0 <_ZN5alloc7raw_vec19RawVec$LT$T$C$A$GT$14current_memory17h52cdded12bdbc807E>
    8610:	31 c0                	xor    eax,eax
    8612:	89 c1                	mov    ecx,eax
    8614:	48 83 7c 24 20 00    	cmp    QWORD PTR [rsp+0x20],0x0
    861a:	ba 01 00 00 00       	mov    edx,0x1
    861f:	48 0f 44 d1          	cmove  rdx,rcx
    8623:	48 83 fa 01          	cmp    rdx,0x1
    8627:	74 02                	je     862b <_ZN77_$LT$alloc..raw_vec..RawVec$LT$T$C$A$GT$$u20$as$u20$core..ops..drop..Drop$GT$4drop17h786481b75140b5daE+0x3b>
    8629:	eb 3d                	jmp    8668 <_ZN77_$LT$alloc..raw_vec..RawVec$LT$T$C$A$GT$$u20$as$u20$core..ops..drop..Drop$GT$4drop17h786481b75140b5daE+0x78>
    862b:	48 8b 44 24 20       	mov    rax,QWORD PTR [rsp+0x20]
    8630:	48 89 44 24 40       	mov    QWORD PTR [rsp+0x40],rax
    8635:	48 8b 4c 24 28       	mov    rcx,QWORD PTR [rsp+0x28]
    863a:	48 8b 54 24 30       	mov    rdx,QWORD PTR [rsp+0x30]
    863f:	48 89 4c 24 48       	mov    QWORD PTR [rsp+0x48],rcx
    8644:	48 89 54 24 50       	mov    QWORD PTR [rsp+0x50],rdx
    8649:	48 8b 74 24 10       	mov    rsi,QWORD PTR [rsp+0x10]
    864e:	48 89 f7             	mov    rdi,rsi
    8651:	48 89 c6             	mov    rsi,rax
    8654:	48 89 54 24 08       	mov    QWORD PTR [rsp+0x8],rdx
    8659:	48 89 ca             	mov    rdx,rcx
    865c:	48 8b 4c 24 08       	mov    rcx,QWORD PTR [rsp+0x8]
    8661:	e8 0a e6 ff ff       	call   6c70 <_ZN62_$LT$alloc..alloc..Global$u20$as$u20$core..alloc..AllocRef$GT$7dealloc17h57106358abc3a51dE>
    8666:	eb 00                	jmp    8668 <_ZN77_$LT$alloc..raw_vec..RawVec$LT$T$C$A$GT$$u20$as$u20$core..ops..drop..Drop$GT$4drop17h786481b75140b5daE+0x78>
    8668:	48 83 c4 58          	add    rsp,0x58
    866c:	c3                   	ret    
    866d:	0f 1f 00             	nop    DWORD PTR [rax]

0000000000008670 <_ZN3std10sys_common9backtrace28__rust_begin_short_backtrace17h701b7a1b0f0e726eE>:
    8670:	48 83 ec 38          	sub    rsp,0x38
    8674:	48 89 7c 24 20       	mov    QWORD PTR [rsp+0x20],rdi
    8679:	e8 12 fe ff ff       	call   8490 <_ZN4core3ops8function6FnOnce9call_once17h2d11054ba177ee81E>
    867e:	eb 0c                	jmp    868c <_ZN3std10sys_common9backtrace28__rust_begin_short_backtrace17h701b7a1b0f0e726eE+0x1c>
    8680:	48 8b 7c 24 28       	mov    rdi,QWORD PTR [rsp+0x28]
    8685:	e8 c6 c9 ff ff       	call   5050 <_Unwind_Resume@plt>
    868a:	0f 0b                	ud2    
    868c:	e8 7f 00 00 00       	call   8710 <_ZN4core4hint9black_box17h3cb45e57d4e88ac6E>
    8691:	eb 00                	jmp    8693 <_ZN3std10sys_common9backtrace28__rust_begin_short_backtrace17h701b7a1b0f0e726eE+0x23>
    8693:	48 83 c4 38          	add    rsp,0x38
    8697:	c3                   	ret    
    8698:	eb e6                	jmp    8680 <_ZN3std10sys_common9backtrace28__rust_begin_short_backtrace17h701b7a1b0f0e726eE+0x10>
    869a:	48 89 44 24 28       	mov    QWORD PTR [rsp+0x28],rax
    869f:	89 54 24 30          	mov    DWORD PTR [rsp+0x30],edx
    86a3:	eb f3                	jmp    8698 <_ZN3std10sys_common9backtrace28__rust_begin_short_backtrace17h701b7a1b0f0e726eE+0x28>
    86a5:	66 2e 0f 1f 84 00 00 	nop    WORD PTR cs:[rax+rax*1+0x0]
    86ac:	00 00 00 
    86af:	90                   	nop

00000000000086b0 <_ZN50_$LT$T$u20$as$u20$core..convert..From$LT$T$GT$$GT$4from17hf1f74836f744845fE>:
    86b0:	48 83 ec 10          	sub    rsp,0x10
    86b4:	48 89 3c 24          	mov    QWORD PTR [rsp],rdi
    86b8:	48 89 74 24 08       	mov    QWORD PTR [rsp+0x8],rsi
    86bd:	48 89 f8             	mov    rax,rdi
    86c0:	48 89 f2             	mov    rdx,rsi
    86c3:	48 83 c4 10          	add    rsp,0x10
    86c7:	c3                   	ret    
    86c8:	0f 1f 84 00 00 00 00 	nop    DWORD PTR [rax+rax*1+0x0]
    86cf:	00 

00000000000086d0 <_ZN4core3str8converts19from_utf8_unchecked17h9689ceca07fdea0eE>:
    86d0:	48 83 ec 30          	sub    rsp,0x30
    86d4:	48 89 7c 24 10       	mov    QWORD PTR [rsp+0x10],rdi
    86d9:	48 89 74 24 18       	mov    QWORD PTR [rsp+0x18],rsi
    86de:	48 89 7c 24 20       	mov    QWORD PTR [rsp+0x20],rdi
    86e3:	48 89 74 24 28       	mov    QWORD PTR [rsp+0x28],rsi
    86e8:	48 8b 44 24 20       	mov    rax,QWORD PTR [rsp+0x20]
    86ed:	48 8b 54 24 28       	mov    rdx,QWORD PTR [rsp+0x28]
    86f2:	48 89 44 24 08       	mov    QWORD PTR [rsp+0x8],rax
    86f7:	48 89 14 24          	mov    QWORD PTR [rsp],rdx
    86fb:	48 8b 44 24 08       	mov    rax,QWORD PTR [rsp+0x8]
    8700:	48 8b 14 24          	mov    rdx,QWORD PTR [rsp]
    8704:	48 83 c4 30          	add    rsp,0x30
    8708:	c3                   	ret    
    8709:	0f 1f 80 00 00 00 00 	nop    DWORD PTR [rax+0x0]

0000000000008710 <_ZN4core4hint9black_box17h3cb45e57d4e88ac6E>:
    8710:	50                   	push   rax
    8711:	48 89 e0             	mov    rax,rsp
    8714:	58                   	pop    rax
    8715:	c3                   	ret    
    8716:	66 2e 0f 1f 84 00 00 	nop    WORD PTR cs:[rax+rax*1+0x0]
    871d:	00 00 00 

0000000000008720 <_ZN5alloc6string6String19from_utf8_unchecked17hf1fdff2a5a23af67E>:
    8720:	48 83 ec 18          	sub    rsp,0x18
    8724:	48 89 f8             	mov    rax,rdi
    8727:	48 8b 0e             	mov    rcx,QWORD PTR [rsi]
    872a:	48 89 0c 24          	mov    QWORD PTR [rsp],rcx
    872e:	48 8b 4e 08          	mov    rcx,QWORD PTR [rsi+0x8]
    8732:	48 89 4c 24 08       	mov    QWORD PTR [rsp+0x8],rcx
    8737:	48 8b 4e 10          	mov    rcx,QWORD PTR [rsi+0x10]
    873b:	48 89 4c 24 10       	mov    QWORD PTR [rsp+0x10],rcx
    8740:	48 8b 0c 24          	mov    rcx,QWORD PTR [rsp]
    8744:	48 89 0f             	mov    QWORD PTR [rdi],rcx
    8747:	48 8b 4c 24 08       	mov    rcx,QWORD PTR [rsp+0x8]
    874c:	48 89 4f 08          	mov    QWORD PTR [rdi+0x8],rcx
    8750:	48 8b 4c 24 10       	mov    rcx,QWORD PTR [rsp+0x10]
    8755:	48 89 4f 10          	mov    QWORD PTR [rdi+0x10],rcx
    8759:	48 83 c4 18          	add    rsp,0x18
    875d:	c3                   	ret    
    875e:	66 90                	xchg   ax,ax

0000000000008760 <_ZN5alloc6string6String8push_str17h810b22cc858a4990E>:
    8760:	48 83 ec 58          	sub    rsp,0x58
    8764:	48 89 7c 24 20       	mov    QWORD PTR [rsp+0x20],rdi
    8769:	48 89 74 24 28       	mov    QWORD PTR [rsp+0x28],rsi
    876e:	48 89 54 24 30       	mov    QWORD PTR [rsp+0x30],rdx
    8773:	48 89 74 24 38       	mov    QWORD PTR [rsp+0x38],rsi
    8778:	48 89 54 24 40       	mov    QWORD PTR [rsp+0x40],rdx
    877d:	48 89 74 24 48       	mov    QWORD PTR [rsp+0x48],rsi
    8782:	48 89 54 24 50       	mov    QWORD PTR [rsp+0x50],rdx
    8787:	48 8b 74 24 48       	mov    rsi,QWORD PTR [rsp+0x48]
    878c:	48 8b 54 24 50       	mov    rdx,QWORD PTR [rsp+0x50]
    8791:	48 89 7c 24 18       	mov    QWORD PTR [rsp+0x18],rdi
    8796:	48 89 74 24 10       	mov    QWORD PTR [rsp+0x10],rsi
    879b:	48 89 54 24 08       	mov    QWORD PTR [rsp+0x8],rdx
    87a0:	48 8b 7c 24 18       	mov    rdi,QWORD PTR [rsp+0x18]
    87a5:	48 8b 74 24 10       	mov    rsi,QWORD PTR [rsp+0x10]
    87aa:	48 8b 54 24 08       	mov    rdx,QWORD PTR [rsp+0x8]
    87af:	e8 5c f4 ff ff       	call   7c10 <_ZN5alloc3vec12Vec$LT$T$GT$17extend_from_slice17h151a7ee9b4a570ecE>
    87b4:	48 83 c4 58          	add    rsp,0x58
    87b8:	c3                   	ret    
    87b9:	0f 1f 80 00 00 00 00 	nop    DWORD PTR [rax+0x0]

00000000000087c0 <_ZN60_$LT$alloc..string..String$u20$as$u20$core..fmt..Display$GT$3fmt17hb4dc7556b669fab9E>:
    87c0:	48 83 ec 38          	sub    rsp,0x38
    87c4:	48 89 7c 24 28       	mov    QWORD PTR [rsp+0x28],rdi
    87c9:	48 89 74 24 30       	mov    QWORD PTR [rsp+0x30],rsi
    87ce:	48 89 74 24 20       	mov    QWORD PTR [rsp+0x20],rsi
    87d3:	e8 38 00 00 00       	call   8810 <_ZN65_$LT$alloc..string..String$u20$as$u20$core..ops..deref..Deref$GT$5deref17h49daa20617a59524E>
    87d8:	48 89 44 24 18       	mov    QWORD PTR [rsp+0x18],rax
    87dd:	48 89 54 24 10       	mov    QWORD PTR [rsp+0x10],rdx
    87e2:	48 8b 7c 24 18       	mov    rdi,QWORD PTR [rsp+0x18]
    87e7:	48 8b 74 24 10       	mov    rsi,QWORD PTR [rsp+0x10]
    87ec:	48 8b 54 24 20       	mov    rdx,QWORD PTR [rsp+0x20]
    87f1:	ff 15 f1 15 04 00    	call   QWORD PTR [rip+0x415f1]        # 49de8 <_GLOBAL_OFFSET_TABLE_+0x428>
    87f7:	88 44 24 0f          	mov    BYTE PTR [rsp+0xf],al
    87fb:	8a 44 24 0f          	mov    al,BYTE PTR [rsp+0xf]
    87ff:	24 01                	and    al,0x1
    8801:	0f b6 c0             	movzx  eax,al
    8804:	48 83 c4 38          	add    rsp,0x38
    8808:	c3                   	ret    
    8809:	0f 1f 80 00 00 00 00 	nop    DWORD PTR [rax+0x0]

0000000000008810 <_ZN65_$LT$alloc..string..String$u20$as$u20$core..ops..deref..Deref$GT$5deref17h49daa20617a59524E>:
    8810:	48 83 ec 28          	sub    rsp,0x28
    8814:	48 89 7c 24 20       	mov    QWORD PTR [rsp+0x20],rdi
    8819:	e8 b2 f4 ff ff       	call   7cd0 <_ZN68_$LT$alloc..vec..Vec$LT$T$GT$$u20$as$u20$core..ops..deref..Deref$GT$5deref17h9bc74f7546577429E>
    881e:	48 89 44 24 18       	mov    QWORD PTR [rsp+0x18],rax
    8823:	48 89 54 24 10       	mov    QWORD PTR [rsp+0x10],rdx
    8828:	48 8b 7c 24 18       	mov    rdi,QWORD PTR [rsp+0x18]
    882d:	48 8b 74 24 10       	mov    rsi,QWORD PTR [rsp+0x10]
    8832:	e8 99 fe ff ff       	call   86d0 <_ZN4core3str8converts19from_utf8_unchecked17h9689ceca07fdea0eE>
    8837:	48 89 44 24 08       	mov    QWORD PTR [rsp+0x8],rax
    883c:	48 89 14 24          	mov    QWORD PTR [rsp],rdx
    8840:	48 8b 44 24 08       	mov    rax,QWORD PTR [rsp+0x8]
    8845:	48 8b 14 24          	mov    rdx,QWORD PTR [rsp]
    8849:	48 83 c4 28          	add    rsp,0x28
    884d:	c3                   	ret    
    884e:	66 90                	xchg   ax,ax

0000000000008850 <_ZN76_$LT$alloc..string..String$u20$as$u20$core..convert..From$LT$$RF$str$GT$$GT$4from17ha5c93b6df48f94a5E>:
    8850:	48 83 ec 18          	sub    rsp,0x18
    8854:	48 89 f8             	mov    rax,rdi
    8857:	48 89 74 24 08       	mov    QWORD PTR [rsp+0x8],rsi
    885c:	48 89 54 24 10       	mov    QWORD PTR [rsp+0x10],rdx
    8861:	48 89 04 24          	mov    QWORD PTR [rsp],rax
    8865:	e8 d6 da ff ff       	call   6340 <_ZN5alloc3str56_$LT$impl$u20$alloc..borrow..ToOwned$u20$for$u20$str$GT$8to_owned17h3b1f163bcd6c2136E>
    886a:	48 8b 04 24          	mov    rax,QWORD PTR [rsp]
    886e:	48 83 c4 18          	add    rsp,0x18
    8872:	c3                   	ret    
    8873:	66 2e 0f 1f 84 00 00 	nop    WORD PTR cs:[rax+rax*1+0x0]
    887a:	00 00 00 
    887d:	0f 1f 00             	nop    DWORD PTR [rax]

0000000000008880 <_ZN4core3num7nonzero12NonZeroUsize13new_unchecked17h168dab5f2db3c48dE>:
    8880:	48 83 ec 10          	sub    rsp,0x10
    8884:	48 89 7c 24 08       	mov    QWORD PTR [rsp+0x8],rdi
    8889:	48 89 3c 24          	mov    QWORD PTR [rsp],rdi
    888d:	48 8b 04 24          	mov    rax,QWORD PTR [rsp]
    8891:	48 83 c4 10          	add    rsp,0x10
    8895:	c3                   	ret    
    8896:	66 2e 0f 1f 84 00 00 	nop    WORD PTR cs:[rax+rax*1+0x0]
    889d:	00 00 00 

00000000000088a0 <_ZN4core3num7nonzero12NonZeroUsize3get17h2d099d4b8d3ddf70E>:
    88a0:	50                   	push   rax
    88a1:	48 89 3c 24          	mov    QWORD PTR [rsp],rdi
    88a5:	48 89 f8             	mov    rax,rdi
    88a8:	59                   	pop    rcx
    88a9:	c3                   	ret    
    88aa:	66 0f 1f 44 00 00    	nop    WORD PTR [rax+rax*1+0x0]

00000000000088b0 <_ZN4core5alloc6layout6Layout12pad_to_align17hcc12dca63ba083ccE>:
    88b0:	48 83 ec 68          	sub    rsp,0x68
    88b4:	48 89 7c 24 50       	mov    QWORD PTR [rsp+0x50],rdi
    88b9:	48 89 7c 24 48       	mov    QWORD PTR [rsp+0x48],rdi
    88be:	e8 4d 02 00 00       	call   8b10 <_ZN4core5alloc6layout6Layout5align17h4d20852f32a8a9fdE>
    88c3:	48 89 44 24 40       	mov    QWORD PTR [rsp+0x40],rax
    88c8:	48 8b 7c 24 48       	mov    rdi,QWORD PTR [rsp+0x48]
    88cd:	48 8b 74 24 40       	mov    rsi,QWORD PTR [rsp+0x40]
    88d2:	e8 39 01 00 00       	call   8a10 <_ZN4core5alloc6layout6Layout18padding_needed_for17h21013175a7715979E>
    88d7:	48 89 44 24 58       	mov    QWORD PTR [rsp+0x58],rax
    88dc:	48 89 44 24 38       	mov    QWORD PTR [rsp+0x38],rax
    88e1:	48 8b 7c 24 48       	mov    rdi,QWORD PTR [rsp+0x48]
    88e6:	e8 15 02 00 00       	call   8b00 <_ZN4core5alloc6layout6Layout4size17h1ca534bde82f7d8fE>
    88eb:	48 89 44 24 30       	mov    QWORD PTR [rsp+0x30],rax
    88f0:	48 8b 44 24 30       	mov    rax,QWORD PTR [rsp+0x30]
    88f5:	48 8b 4c 24 38       	mov    rcx,QWORD PTR [rsp+0x38]
    88fa:	48 01 c8             	add    rax,rcx
    88fd:	48 89 44 24 60       	mov    QWORD PTR [rsp+0x60],rax
    8902:	48 8b 7c 24 48       	mov    rdi,QWORD PTR [rsp+0x48]
    8907:	48 89 44 24 28       	mov    QWORD PTR [rsp+0x28],rax
    890c:	e8 ff 01 00 00       	call   8b10 <_ZN4core5alloc6layout6Layout5align17h4d20852f32a8a9fdE>
    8911:	48 89 44 24 20       	mov    QWORD PTR [rsp+0x20],rax
    8916:	48 8b 7c 24 28       	mov    rdi,QWORD PTR [rsp+0x28]
    891b:	48 8b 74 24 20       	mov    rsi,QWORD PTR [rsp+0x20]
    8920:	e8 3b 00 00 00       	call   8960 <_ZN4core5alloc6layout6Layout15from_size_align17h453a171e4ead6bf7E>
    8925:	48 89 44 24 18       	mov    QWORD PTR [rsp+0x18],rax
    892a:	48 89 54 24 10       	mov    QWORD PTR [rsp+0x10],rdx
    892f:	48 8d 05 ea ed 03 00 	lea    rax,[rip+0x3edea]        # 47720 <__do_global_dtors_aux_fini_array_entry+0x90>
    8936:	48 8b 7c 24 18       	mov    rdi,QWORD PTR [rsp+0x18]
    893b:	48 8b 74 24 10       	mov    rsi,QWORD PTR [rsp+0x10]
    8940:	48 89 c2             	mov    rdx,rax
    8943:	e8 18 e6 ff ff       	call   6f60 <_ZN4core6result19Result$LT$T$C$E$GT$6unwrap17h6696405b0222aedaE>
    8948:	48 89 44 24 08       	mov    QWORD PTR [rsp+0x8],rax
    894d:	48 89 14 24          	mov    QWORD PTR [rsp],rdx
    8951:	48 8b 44 24 08       	mov    rax,QWORD PTR [rsp+0x8]
    8956:	48 8b 14 24          	mov    rdx,QWORD PTR [rsp]
    895a:	48 83 c4 68          	add    rsp,0x68
    895e:	c3                   	ret    
    895f:	90                   	nop

0000000000008960 <_ZN4core5alloc6layout6Layout15from_size_align17h453a171e4ead6bf7E>:
    8960:	48 83 ec 48          	sub    rsp,0x48
    8964:	48 89 7c 24 38       	mov    QWORD PTR [rsp+0x38],rdi
    8969:	48 89 74 24 40       	mov    QWORD PTR [rsp+0x40],rsi
    896e:	48 89 7c 24 20       	mov    QWORD PTR [rsp+0x20],rdi
    8973:	48 89 f7             	mov    rdi,rsi
    8976:	48 89 74 24 18       	mov    QWORD PTR [rsp+0x18],rsi
    897b:	e8 b0 ef ff ff       	call   7930 <_ZN4core3num23_$LT$impl$u20$usize$GT$15is_power_of_two17he9ad43ebe7251154E>
    8980:	88 44 24 17          	mov    BYTE PTR [rsp+0x17],al
    8984:	8a 44 24 17          	mov    al,BYTE PTR [rsp+0x17]
    8988:	34 ff                	xor    al,0xff
    898a:	a8 01                	test   al,0x1
    898c:	75 21                	jne    89af <_ZN4core5alloc6layout6Layout15from_size_align17h453a171e4ead6bf7E+0x4f>
    898e:	48 8b 44 24 18       	mov    rax,QWORD PTR [rsp+0x18]
    8993:	48 2d 01 00 00 00    	sub    rax,0x1
    8999:	48 c7 c1 ff ff ff ff 	mov    rcx,0xffffffffffffffff
    89a0:	48 29 c1             	sub    rcx,rax
    89a3:	48 8b 44 24 20       	mov    rax,QWORD PTR [rsp+0x20]
    89a8:	48 39 c8             	cmp    rax,rcx
    89ab:	77 34                	ja     89e1 <_ZN4core5alloc6layout6Layout15from_size_align17h453a171e4ead6bf7E+0x81>
    89ad:	eb 18                	jmp    89c7 <_ZN4core5alloc6layout6Layout15from_size_align17h453a171e4ead6bf7E+0x67>
    89af:	48 c7 44 24 30 00 00 	mov    QWORD PTR [rsp+0x30],0x0
    89b6:	00 00 
    89b8:	48 8b 44 24 28       	mov    rax,QWORD PTR [rsp+0x28]
    89bd:	48 8b 54 24 30       	mov    rdx,QWORD PTR [rsp+0x30]
    89c2:	48 83 c4 48          	add    rsp,0x48
    89c6:	c3                   	ret    
    89c7:	48 8b 7c 24 20       	mov    rdi,QWORD PTR [rsp+0x20]
    89cc:	48 8b 74 24 18       	mov    rsi,QWORD PTR [rsp+0x18]
    89d1:	e8 da 00 00 00       	call   8ab0 <_ZN4core5alloc6layout6Layout25from_size_align_unchecked17h4a1243d30a33400dE>
    89d6:	48 89 44 24 08       	mov    QWORD PTR [rsp+0x8],rax
    89db:	48 89 14 24          	mov    QWORD PTR [rsp],rdx
    89df:	eb 0b                	jmp    89ec <_ZN4core5alloc6layout6Layout15from_size_align17h453a171e4ead6bf7E+0x8c>
    89e1:	48 c7 44 24 30 00 00 	mov    QWORD PTR [rsp+0x30],0x0
    89e8:	00 00 
    89ea:	eb cc                	jmp    89b8 <_ZN4core5alloc6layout6Layout15from_size_align17h453a171e4ead6bf7E+0x58>
    89ec:	48 8b 44 24 08       	mov    rax,QWORD PTR [rsp+0x8]
    89f1:	48 89 44 24 28       	mov    QWORD PTR [rsp+0x28],rax
    89f6:	48 8b 0c 24          	mov    rcx,QWORD PTR [rsp]
    89fa:	48 89 4c 24 30       	mov    QWORD PTR [rsp+0x30],rcx
    89ff:	eb b7                	jmp    89b8 <_ZN4core5alloc6layout6Layout15from_size_align17h453a171e4ead6bf7E+0x58>
    8a01:	66 2e 0f 1f 84 00 00 	nop    WORD PTR cs:[rax+rax*1+0x0]
    8a08:	00 00 00 
    8a0b:	0f 1f 44 00 00       	nop    DWORD PTR [rax+rax*1+0x0]

0000000000008a10 <_ZN4core5alloc6layout6Layout18padding_needed_for17h21013175a7715979E>:
    8a10:	48 83 ec 58          	sub    rsp,0x58
    8a14:	48 89 7c 24 38       	mov    QWORD PTR [rsp+0x38],rdi
    8a19:	48 89 74 24 40       	mov    QWORD PTR [rsp+0x40],rsi
    8a1e:	48 89 74 24 30       	mov    QWORD PTR [rsp+0x30],rsi
    8a23:	e8 d8 00 00 00       	call   8b00 <_ZN4core5alloc6layout6Layout4size17h1ca534bde82f7d8fE>
    8a28:	48 89 44 24 48       	mov    QWORD PTR [rsp+0x48],rax
    8a2d:	48 89 44 24 28       	mov    QWORD PTR [rsp+0x28],rax
    8a32:	48 8b 7c 24 28       	mov    rdi,QWORD PTR [rsp+0x28]
    8a37:	48 8b 74 24 30       	mov    rsi,QWORD PTR [rsp+0x30]
    8a3c:	e8 8f ee ff ff       	call   78d0 <_ZN4core3num23_$LT$impl$u20$usize$GT$12wrapping_add17h81bca7e4eaa007deE>
    8a41:	48 89 44 24 20       	mov    QWORD PTR [rsp+0x20],rax
    8a46:	48 8b 7c 24 20       	mov    rdi,QWORD PTR [rsp+0x20]
    8a4b:	be 01 00 00 00       	mov    esi,0x1
    8a50:	e8 ab ee ff ff       	call   7900 <_ZN4core3num23_$LT$impl$u20$usize$GT$12wrapping_sub17h024ee33beffc4823E>
    8a55:	48 89 44 24 18       	mov    QWORD PTR [rsp+0x18],rax
    8a5a:	48 8b 7c 24 30       	mov    rdi,QWORD PTR [rsp+0x30]
    8a5f:	be 01 00 00 00       	mov    esi,0x1
    8a64:	e8 97 ee ff ff       	call   7900 <_ZN4core3num23_$LT$impl$u20$usize$GT$12wrapping_sub17h024ee33beffc4823E>
    8a69:	48 89 44 24 10       	mov    QWORD PTR [rsp+0x10],rax
    8a6e:	48 8b 44 24 10       	mov    rax,QWORD PTR [rsp+0x10]
    8a73:	48 35 ff ff ff ff    	xor    rax,0xffffffffffffffff
    8a79:	48 8b 4c 24 18       	mov    rcx,QWORD PTR [rsp+0x18]
    8a7e:	48 21 c1             	and    rcx,rax
    8a81:	48 89 4c 24 50       	mov    QWORD PTR [rsp+0x50],rcx
    8a86:	48 89 cf             	mov    rdi,rcx
    8a89:	48 8b 74 24 28       	mov    rsi,QWORD PTR [rsp+0x28]
    8a8e:	e8 6d ee ff ff       	call   7900 <_ZN4core3num23_$LT$impl$u20$usize$GT$12wrapping_sub17h024ee33beffc4823E>
    8a93:	48 89 44 24 08       	mov    QWORD PTR [rsp+0x8],rax
    8a98:	48 8b 44 24 08       	mov    rax,QWORD PTR [rsp+0x8]
    8a9d:	48 83 c4 58          	add    rsp,0x58
    8aa1:	c3                   	ret    
    8aa2:	66 2e 0f 1f 84 00 00 	nop    WORD PTR cs:[rax+rax*1+0x0]
    8aa9:	00 00 00 
    8aac:	0f 1f 40 00          	nop    DWORD PTR [rax+0x0]

0000000000008ab0 <_ZN4core5alloc6layout6Layout25from_size_align_unchecked17h4a1243d30a33400dE>:
    8ab0:	48 83 ec 38          	sub    rsp,0x38
    8ab4:	48 89 7c 24 28       	mov    QWORD PTR [rsp+0x28],rdi
    8ab9:	48 89 74 24 30       	mov    QWORD PTR [rsp+0x30],rsi
    8abe:	48 89 7c 24 10       	mov    QWORD PTR [rsp+0x10],rdi
    8ac3:	48 89 f7             	mov    rdi,rsi
    8ac6:	e8 b5 fd ff ff       	call   8880 <_ZN4core3num7nonzero12NonZeroUsize13new_unchecked17h168dab5f2db3c48dE>
    8acb:	48 89 44 24 08       	mov    QWORD PTR [rsp+0x8],rax
    8ad0:	48 8b 44 24 10       	mov    rax,QWORD PTR [rsp+0x10]
    8ad5:	48 89 44 24 18       	mov    QWORD PTR [rsp+0x18],rax
    8ada:	48 8b 4c 24 08       	mov    rcx,QWORD PTR [rsp+0x8]
    8adf:	48 89 4c 24 20       	mov    QWORD PTR [rsp+0x20],rcx
    8ae4:	48 8b 44 24 18       	mov    rax,QWORD PTR [rsp+0x18]
    8ae9:	48 8b 54 24 20       	mov    rdx,QWORD PTR [rsp+0x20]
    8aee:	48 83 c4 38          	add    rsp,0x38
    8af2:	c3                   	ret    
    8af3:	66 2e 0f 1f 84 00 00 	nop    WORD PTR cs:[rax+rax*1+0x0]
    8afa:	00 00 00 
    8afd:	0f 1f 00             	nop    DWORD PTR [rax]

0000000000008b00 <_ZN4core5alloc6layout6Layout4size17h1ca534bde82f7d8fE>:
    8b00:	50                   	push   rax
    8b01:	48 89 3c 24          	mov    QWORD PTR [rsp],rdi
    8b05:	48 8b 07             	mov    rax,QWORD PTR [rdi]
    8b08:	59                   	pop    rcx
    8b09:	c3                   	ret    
    8b0a:	66 0f 1f 44 00 00    	nop    WORD PTR [rax+rax*1+0x0]

0000000000008b10 <_ZN4core5alloc6layout6Layout5align17h4d20852f32a8a9fdE>:
    8b10:	48 83 ec 18          	sub    rsp,0x18
    8b14:	48 89 7c 24 10       	mov    QWORD PTR [rsp+0x10],rdi
    8b19:	48 8b 7f 08          	mov    rdi,QWORD PTR [rdi+0x8]
    8b1d:	e8 7e fd ff ff       	call   88a0 <_ZN4core3num7nonzero12NonZeroUsize3get17h2d099d4b8d3ddf70E>
    8b22:	48 89 44 24 08       	mov    QWORD PTR [rsp+0x8],rax
    8b27:	48 8b 44 24 08       	mov    rax,QWORD PTR [rsp+0x8]
    8b2c:	48 83 c4 18          	add    rsp,0x18
    8b30:	c3                   	ret    
    8b31:	66 2e 0f 1f 84 00 00 	nop    WORD PTR cs:[rax+rax*1+0x0]
    8b38:	00 00 00 
    8b3b:	0f 1f 44 00 00       	nop    DWORD PTR [rax+rax*1+0x0]

0000000000008b40 <_ZN4core5alloc6layout6Layout6repeat17h9babb3bbb6780907E>:
    8b40:	48 81 ec e8 00 00 00 	sub    rsp,0xe8
    8b47:	48 89 f8             	mov    rax,rdi
    8b4a:	48 89 b4 24 b8 00 00 	mov    QWORD PTR [rsp+0xb8],rsi
    8b51:	00 
    8b52:	48 89 94 24 c0 00 00 	mov    QWORD PTR [rsp+0xc0],rdx
    8b59:	00 
    8b5a:	48 89 bc 24 80 00 00 	mov    QWORD PTR [rsp+0x80],rdi
    8b61:	00 
    8b62:	48 89 f7             	mov    rdi,rsi
    8b65:	48 89 54 24 78       	mov    QWORD PTR [rsp+0x78],rdx
    8b6a:	48 89 74 24 70       	mov    QWORD PTR [rsp+0x70],rsi
    8b6f:	48 89 44 24 68       	mov    QWORD PTR [rsp+0x68],rax
    8b74:	e8 87 ff ff ff       	call   8b00 <_ZN4core5alloc6layout6Layout4size17h1ca534bde82f7d8fE>
    8b79:	48 89 44 24 60       	mov    QWORD PTR [rsp+0x60],rax
    8b7e:	48 8b 7c 24 70       	mov    rdi,QWORD PTR [rsp+0x70]
    8b83:	e8 88 ff ff ff       	call   8b10 <_ZN4core5alloc6layout6Layout5align17h4d20852f32a8a9fdE>
    8b88:	48 89 44 24 58       	mov    QWORD PTR [rsp+0x58],rax
    8b8d:	48 8b 7c 24 70       	mov    rdi,QWORD PTR [rsp+0x70]
    8b92:	48 8b 74 24 58       	mov    rsi,QWORD PTR [rsp+0x58]
    8b97:	e8 74 fe ff ff       	call   8a10 <_ZN4core5alloc6layout6Layout18padding_needed_for17h21013175a7715979E>
    8b9c:	48 89 44 24 50       	mov    QWORD PTR [rsp+0x50],rax
    8ba1:	48 8b 44 24 60       	mov    rax,QWORD PTR [rsp+0x60]
    8ba6:	48 8b 4c 24 50       	mov    rcx,QWORD PTR [rsp+0x50]
    8bab:	48 01 c8             	add    rax,rcx
    8bae:	48 89 84 24 d0 00 00 	mov    QWORD PTR [rsp+0xd0],rax
    8bb5:	00 
    8bb6:	48 89 c7             	mov    rdi,rax
    8bb9:	48 8b 74 24 78       	mov    rsi,QWORD PTR [rsp+0x78]
    8bbe:	48 89 44 24 48       	mov    QWORD PTR [rsp+0x48],rax
    8bc3:	e8 88 ec ff ff       	call   7850 <_ZN4core3num23_$LT$impl$u20$usize$GT$11checked_mul17ha4483cbd3b2a2aabE>
    8bc8:	48 89 44 24 40       	mov    QWORD PTR [rsp+0x40],rax
    8bcd:	48 89 54 24 38       	mov    QWORD PTR [rsp+0x38],rdx
    8bd2:	48 8b 7c 24 40       	mov    rdi,QWORD PTR [rsp+0x40]
    8bd7:	48 8b 74 24 38       	mov    rsi,QWORD PTR [rsp+0x38]
    8bdc:	e8 8f c5 ff ff       	call   5170 <_ZN4core6option15Option$LT$T$GT$5ok_or17h10dd0558bee9982dE>
    8be1:	48 89 44 24 30       	mov    QWORD PTR [rsp+0x30],rax
    8be6:	48 89 54 24 28       	mov    QWORD PTR [rsp+0x28],rdx
    8beb:	48 8b 7c 24 30       	mov    rdi,QWORD PTR [rsp+0x30]
    8bf0:	48 8b 74 24 28       	mov    rsi,QWORD PTR [rsp+0x28]
    8bf5:	e8 e6 e6 ff ff       	call   72e0 <_ZN73_$LT$core..result..Result$LT$T$C$E$GT$$u20$as$u20$core..ops..try..Try$GT$11into_result17h8e783235f244ae98E>
    8bfa:	48 89 94 24 90 00 00 	mov    QWORD PTR [rsp+0x90],rdx
    8c01:	00 
    8c02:	48 89 84 24 88 00 00 	mov    QWORD PTR [rsp+0x88],rax
    8c09:	00 
    8c0a:	48 8b 84 24 88 00 00 	mov    rax,QWORD PTR [rsp+0x88]
    8c11:	00 
    8c12:	48 85 c0             	test   rax,rax
    8c15:	74 04                	je     8c1b <_ZN4core5alloc6layout6Layout6repeat17h9babb3bbb6780907E+0xdb>
    8c17:	eb 00                	jmp    8c19 <_ZN4core5alloc6layout6Layout6repeat17h9babb3bbb6780907E+0xd9>
    8c19:	eb 30                	jmp    8c4b <_ZN4core5alloc6layout6Layout6repeat17h9babb3bbb6780907E+0x10b>
    8c1b:	48 8b 84 24 90 00 00 	mov    rax,QWORD PTR [rsp+0x90]
    8c22:	00 
    8c23:	48 89 84 24 d8 00 00 	mov    QWORD PTR [rsp+0xd8],rax
    8c2a:	00 
    8c2b:	48 89 84 24 e0 00 00 	mov    QWORD PTR [rsp+0xe0],rax
    8c32:	00 
    8c33:	48 8b 7c 24 70       	mov    rdi,QWORD PTR [rsp+0x70]
    8c38:	48 89 44 24 20       	mov    QWORD PTR [rsp+0x20],rax
    8c3d:	e8 ce fe ff ff       	call   8b10 <_ZN4core5alloc6layout6Layout5align17h4d20852f32a8a9fdE>
    8c42:	48 89 44 24 18       	mov    QWORD PTR [rsp+0x18],rax
    8c47:	eb 25                	jmp    8c6e <_ZN4core5alloc6layout6Layout6repeat17h9babb3bbb6780907E+0x12e>
    8c49:	0f 0b                	ud2    
    8c4b:	e8 00 e3 ff ff       	call   6f50 <_ZN50_$LT$T$u20$as$u20$core..convert..From$LT$T$GT$$GT$4from17h0f8cde22be9d2fe9E>
    8c50:	eb 0d                	jmp    8c5f <_ZN4core5alloc6layout6Layout6repeat17h9babb3bbb6780907E+0x11f>
    8c52:	48 8b 44 24 68       	mov    rax,QWORD PTR [rsp+0x68]
    8c57:	48 81 c4 e8 00 00 00 	add    rsp,0xe8
    8c5e:	c3                   	ret    
    8c5f:	48 8b bc 24 80 00 00 	mov    rdi,QWORD PTR [rsp+0x80]
    8c66:	00 
    8c67:	e8 94 e5 ff ff       	call   7200 <_ZN73_$LT$core..result..Result$LT$T$C$E$GT$$u20$as$u20$core..ops..try..Try$GT$10from_error17h28528e7040818dccE>
    8c6c:	eb e4                	jmp    8c52 <_ZN4core5alloc6layout6Layout6repeat17h9babb3bbb6780907E+0x112>
    8c6e:	48 8b 7c 24 20       	mov    rdi,QWORD PTR [rsp+0x20]
    8c73:	48 8b 74 24 18       	mov    rsi,QWORD PTR [rsp+0x18]
    8c78:	e8 33 fe ff ff       	call   8ab0 <_ZN4core5alloc6layout6Layout25from_size_align_unchecked17h4a1243d30a33400dE>
    8c7d:	48 89 44 24 10       	mov    QWORD PTR [rsp+0x10],rax
    8c82:	48 89 54 24 08       	mov    QWORD PTR [rsp+0x8],rdx
    8c87:	48 8b 44 24 10       	mov    rax,QWORD PTR [rsp+0x10]
    8c8c:	48 89 84 24 a0 00 00 	mov    QWORD PTR [rsp+0xa0],rax
    8c93:	00 
    8c94:	48 8b 4c 24 08       	mov    rcx,QWORD PTR [rsp+0x8]
    8c99:	48 89 8c 24 a8 00 00 	mov    QWORD PTR [rsp+0xa8],rcx
    8ca0:	00 
    8ca1:	48 8b 54 24 48       	mov    rdx,QWORD PTR [rsp+0x48]
    8ca6:	48 89 94 24 b0 00 00 	mov    QWORD PTR [rsp+0xb0],rdx
    8cad:	00 
    8cae:	48 8b b4 24 a0 00 00 	mov    rsi,QWORD PTR [rsp+0xa0]
    8cb5:	00 
    8cb6:	48 8b bc 24 80 00 00 	mov    rdi,QWORD PTR [rsp+0x80]
    8cbd:	00 
    8cbe:	48 89 37             	mov    QWORD PTR [rdi],rsi
    8cc1:	48 8b b4 24 a8 00 00 	mov    rsi,QWORD PTR [rsp+0xa8]
    8cc8:	00 
    8cc9:	48 89 77 08          	mov    QWORD PTR [rdi+0x8],rsi
    8ccd:	48 8b b4 24 b0 00 00 	mov    rsi,QWORD PTR [rsp+0xb0]
    8cd4:	00 
    8cd5:	48 89 77 10          	mov    QWORD PTR [rdi+0x10],rsi
    8cd9:	e9 74 ff ff ff       	jmp    8c52 <_ZN4core5alloc6layout6Layout6repeat17h9babb3bbb6780907E+0x112>
    8cde:	66 90                	xchg   ax,ax

0000000000008ce0 <_ZN4core5alloc6layout6Layout8dangling17h26ba508164a641afE>:
    8ce0:	48 83 ec 18          	sub    rsp,0x18
    8ce4:	48 89 7c 24 10       	mov    QWORD PTR [rsp+0x10],rdi
    8ce9:	e8 22 fe ff ff       	call   8b10 <_ZN4core5alloc6layout6Layout5align17h4d20852f32a8a9fdE>
    8cee:	48 89 44 24 08       	mov    QWORD PTR [rsp+0x8],rax
    8cf3:	48 8b 7c 24 08       	mov    rdi,QWORD PTR [rsp+0x8]
    8cf8:	e8 a3 e6 ff ff       	call   73a0 <_ZN4core3ptr8non_null16NonNull$LT$T$GT$13new_unchecked17hcca2a50d89b4fc2cE>
    8cfd:	48 89 04 24          	mov    QWORD PTR [rsp],rax
    8d01:	48 8b 04 24          	mov    rax,QWORD PTR [rsp]
    8d05:	48 83 c4 18          	add    rsp,0x18
    8d09:	c3                   	ret    
    8d0a:	66 0f 1f 44 00 00    	nop    WORD PTR [rax+rax*1+0x0]

0000000000008d10 <_ZN4core3ptr9const_ptr33_$LT$impl$u20$$BP$const$u20$T$GT$12wrapping_add17hbe315347f45ecdfeE>:
    8d10:	48 83 ec 18          	sub    rsp,0x18
    8d14:	48 89 7c 24 08       	mov    QWORD PTR [rsp+0x8],rdi
    8d19:	48 89 74 24 10       	mov    QWORD PTR [rsp+0x10],rsi
    8d1e:	e8 3d 00 00 00       	call   8d60 <_ZN4core3ptr9const_ptr33_$LT$impl$u20$$BP$const$u20$T$GT$15wrapping_offset17hc5185fd2f04c5030E>
    8d23:	48 89 04 24          	mov    QWORD PTR [rsp],rax
    8d27:	48 8b 04 24          	mov    rax,QWORD PTR [rsp]
    8d2b:	48 83 c4 18          	add    rsp,0x18
    8d2f:	c3                   	ret    

